(lp0
(lp1
I4
aI6
aI5
aI4
aI7
aI9
aI8
aI7
aI4
aI2
aI7
aI3
aI0
aI1
aa(lp2
I8
aI4
aI6
aI7
aI5
aI4
aI7
aI9
aI8
aI4
aI2
aI3
aI0
aI1
aa(lp3
I4
aI9
aI6
aI5
aI4
aI7
aI9
aI8
aI4
aI2
aI3
aI4
aI0
aI1
aa(lp4
I3
aI5
aI4
aI3
aI1
aI8
aI7
aI3
aI0
aI2
aI8
aI6
aa(lp5
I3
aI5
aI4
aI3
aI8
aI7
aI3
aI1
aI6
aI2
aI0
aI6
aa(lp6
I3
aI4
aI3
aI6
aI8
aI7
aI3
aI1
aI2
aI5
aI0
aa(lp7
I2
aI4
aI3
aI2
aI7
aI6
aI5
aI2
aI1
aI0
aI5
aa(lp8
I3
aI4
aI3
aI7
aI2
aI6
aI3
aI1
aI6
aI0
aI5
aa(lp9
I4
aI6
aI5
aI4
aI7
aI9
aI8
aI4
aI2
aI9
aI3
aI0
aI1
aa(lp10
I3
aI5
aI4
aI3
aI6
aI8
aI7
aI4
aI3
aI2
aI0
aI1
aa(lp11
I4
aI6
aI5
aI4
aI1
aI9
aI7
aI8
aI4
aI2
aI3
aI0
aI7
aa(lp12
I4
aI6
aI5
aI4
aI7
aI9
aI8
aI4
aI7
aI2
aI3
aI0
aI1
aa(lp13
I4
aI6
aI5
aI4
aI7
aI2
aI9
aI8
aI2
aI4
aI1
aI3
aI9
aI0
aa(lp14
I4
aI6
aI5
aI7
aI9
aI8
aI4
aI2
aI3
aI0
aI1
aa(lp15
I4
aI6
aI5
aI4
aI7
aI9
aI8
aI4
aI2
aI3
aI0
aI1
aa(lp16
I4
aI6
aI5
aI4
aI7
aI9
aI8
aI4
aI2
aI3
aI8
aI0
aI1
aa(lp17
I4
aI6
aI5
aI4
aI7
aI9
aI8
aI4
aI2
aI3
aI0
aI1
aa(lp18
I4
aI6
aI5
aI4
aI7
aI2
aI9
aI8
aI8
aI4
aI7
aI1
aI3
aI9
aI0
aa(lp19
I4
aI6
aI5
aI4
aI5
aI7
aI9
aI8
aI4
aI2
aI3
aI0
aI1
aa(lp20
I3
aI5
aI4
aI3
aI7
aI6
aI8
aI2
aI3
aI1
aI7
aI0
aa(lp21
I4
aI6
aI5
aI4
aI8
aI7
aI9
aI3
aI4
aI2
aI8
aI0
aI1
aa(lp22
I4
aI6
aI5
aI7
aI4
aI7
aI9
aI8
aI4
aI7
aI2
aI3
aI0
aI1
aa(lp23
I4
aI6
aI5
aI5
aI4
aI7
aI9
aI8
aI4
aI2
aI3
aI0
aI1
aa(lp24
I3
aI5
aI7
aI8
aI4
aI3
aI1
aI8
aI7
aI3
aI1
aI2
aI0
aI6
aa(lp25
I3
aI4
aI3
aI6
aI8
aI7
aI3
aI1
aI2
aI5
aI0
aa(lp26
I4
aI6
aI5
aI4
aI7
aI9
aI8
aI4
aI2
aI3
aI4
aI0
aI1
aa(lp27
I3
aI5
aI4
aI3
aI6
aI8
aI7
aI3
aI2
aI0
aI1
aa(lp28
I4
aI6
aI5
aI4
aI7
aI2
aI9
aI2
aI8
aI4
aI1
aI3
aI9
aI0
aa(lp29
I3
aI5
aI4
aI3
aI6
aI7
aI3
aI1
aI2
aI8
aI0
aa(lp30
I4
aI9
aI6
aI5
aI4
aI7
aI9
aI8
aI4
aI2
aI3
aI8
aI0
aI1
aa(lp31
I4
aI6
aI5
aI4
aI7
aI9
aI8
aI4
aI2
aI3
aI0
aI0
aI1
aa(lp32
I6
aI5
aI4
aI7
aI9
aI8
aI4
aI2
aI3
aI8
aI0
aI1
aa(lp33
I3
aI4
aI3
aI6
aI8
aI7
aI3
aI1
aI2
aI5
aI0
aa(lp34
I3
aI5
aI4
aI3
aI6
aI8
aI7
aI3
aI2
aI0
aI1
aa(lp35
I4
aI7
aI6
aI5
aI4
aI7
aI9
aI8
aI4
aI2
aI3
aI0
aI1
aa(lp36
I5
aI4
aI3
aI6
aI8
aI7
aI3
aI1
aI0
aI2
aI0
aa(lp37
I4
aI6
aI5
aI4
aI7
aI9
aI5
aI8
aI4
aI2
aI3
aI0
aI1
aa(lp38
I3
aI5
aI4
aI3
aI0
aI6
aI7
aI3
aI1
aI2
aI8
aI6
aa(lp39
I4
aI6
aI5
aI4
aI7
aI9
aI8
aI4
aI2
aI3
aI0
aI1
aa(lp40
I4
aI6
aI0
aI5
aI4
aI7
aI9
aI8
aI4
aI2
aI3
aI0
aI1
aa(lp41
I2
aI4
aI3
aI2
aI5
aI7
aI6
aI2
aI1
aI6
aI0
aa(lp42
I1
aI3
aI2
aI1
aI4
aI5
aI1
aI6
aI0
aa(lp43
I4
aI6
aI5
aI4
aI7
aI9
aI8
aI2
aI3
aI0
aI1
aa(lp44
I4
aI6
aI4
aI5
aI4
aI7
aI9
aI8
aI2
aI3
aI0
aI1
aa(lp45
I3
aI5
aI4
aI3
aI6
aI8
aI7
aI3
aI2
aI0
aI1
aa(lp46
I4
aI1
aI6
aI5
aI4
aI7
aI9
aI8
aI4
aI2
aI3
aI0
aI1
aa(lp47
I4
aI6
aI5
aI4
aI9
aI8
aI4
aI7
aI2
aI3
aI0
aI1
aa(lp48
I4
aI6
aI5
aI4
aI7
aI9
aI8
aI4
aI2
aI2
aI3
aI0
aI1
aa(lp49
I3
aI5
aI4
aI3
aI6
aI8
aI3
aI2
aI7
aI0
aI0
aI1
aa(lp50
I3
aI5
aI4
aI3
aI6
aI8
aI3
aI2
aI7
aI0
aI1
aa(lp51
I4
aI6
aI5
aI4
aI7
aI9
aI8
aI4
aI2
aI3
aI3
aI0
aI5
aI1
aa(lp52
I4
aI6
aI5
aI4
aI7
aI2
aI9
aI8
aI4
aI1
aI3
aI9
aI0
aa(lp53
I3
aI5
aI4
aI3
aI6
aI8
aI7
aI3
aI2
aI0
aI1
aa(lp54
I3
aI5
aI4
aI3
aI6
aI8
aI3
aI2
aI7
aI0
aI8
aI1
aa(lp55
I4
aI6
aI5
aI4
aI7
aI9
aI8
aI4
aI2
aI3
aI0
aI1
aa(lp56
I4
aI3
aI2
aI5
aI7
aI6
aI2
aI1
aI4
aI0
aa(lp57
I4
aI6
aI5
aI4
aI7
aI9
aI5
aI8
aI4
aI2
aI3
aI7
aI0
aI1
aa(lp58
I4
aI6
aI5
aI4
aI7
aI9
aI8
aI2
aI3
aI0
aI1
aa(lp59
I3
aI5
aI4
aI3
aI6
aI7
aI3
aI1
aI2
aI8
aI7
aI0
aa(lp60
I3
aI5
aI4
aI5
aI3
aI6
aI8
aI7
aI3
aI1
aI2
aI0
aa(lp61
I3
aI5
aI4
aI3
aI6
aI8
aI7
aI3
aI2
aI0
aI1
aa(lp62
I4
aI6
aI2
aI5
aI4
aI7
aI9
aI8
aI4
aI2
aI3
aI0
aI1
aa(lp63
I4
aI6
aI5
aI4
aI7
aI9
aI8
aI4
aI2
aI3
aI5
aI6
aI0
aI1
aa(lp64
I3
aI5
aI4
aI3
aI6
aI8
aI7
aI3
aI8
aI2
aI0
aI1
aa(lp65
I3
aI4
aI2
aI3
aI6
aI8
aI7
aI3
aI1
aI2
aI5
aI0
aa(lp66
I3
aI5
aI4
aI3
aI6
aI8
aI7
aI3
aI2
aI0
aI1
aa(lp67
I4
aI9
aI6
aI5
aI4
aI7
aI9
aI8
aI4
aI2
aI3
aI0
aI1
aa(lp68
I3
aI3
aI5
aI4
aI3
aI6
aI7
aI3
aI1
aI2
aI8
aI0
aa(lp69
I5
aI4
aI6
aI5
aI4
aI7
aI9
aI8
aI4
aI2
aI3
aI0
aI1
aa(lp70
I4
aI6
aI5
aI4
aI7
aI9
aI8
aI4
aI2
aI3
aI6
aI0
aI1
aa(lp71
I4
aI6
aI5
aI4
aI2
aI7
aI9
aI8
aI4
aI2
aI3
aI0
aI1
aa(lp72
I4
aI5
aI1
aI4
aI6
aI8
aI7
aI4
aI0
aI2
aI3
aI0
aI1
aa(lp73
I1
aI3
aI5
aI4
aI3
aI6
aI7
aI3
aI2
aI0
aI1
aa(lp74
I3
aI5
aI4
aI7
aI3
aI6
aI7
aI3
aI1
aI2
aI8
aI0
aa(lp75
I4
aI2
aI6
aI5
aI4
aI7
aI9
aI8
aI2
aI3
aI0
aI1
aa(lp76
I4
aI6
aI4
aI7
aI7
aI9
aI8
aI4
aI2
aI3
aI0
aI5
aI1
aa(lp77
I3
aI4
aI3
aI0
aI8
aI7
aI3
aI6
aI1
aI2
aI5
aI6
aa(lp78
I9
aI4
aI6
aI5
aI4
aI7
aI9
aI8
aI4
aI2
aI3
aI0
aI1
aa(lp79
I4
aI6
aI5
aI4
aI7
aI2
aI9
aI8
aI2
aI3
aI0
aI1
aa(lp80
I3
aI5
aI4
aI3
aI3
aI6
aI8
aI3
aI2
aI7
aI0
aI1
aa(lp81
I3
aI7
aI5
aI4
aI3
aI6
aI8
aI3
aI4
aI2
aI7
aI0
aI1
aa(lp82
I4
aI6
aI5
aI4
aI7
aI9
aI9
aI8
aI4
aI2
aI3
aI0
aI1
aa(lp83
I4
aI6
aI5
aI4
aI7
aI9
aI8
aI4
aI2
aI3
aI0
aI1
aa(lp84
I3
aI4
aI3
aI6
aI8
aI7
aI3
aI1
aI2
aI5
aI0
aa(lp85
I4
aI6
aI5
aI4
aI7
aI9
aI8
aI4
aI2
aI3
aI0
aI2
aI1
aa(lp86
I6
aI5
aI4
aI7
aI9
aI8
aI4
aI2
aI3
aI0
aI8
aI1
aa(lp87
I4
aI6
aI5
aI4
aI7
aI9
aI7
aI8
aI4
aI2
aI3
aI0
aI1
aa(lp88
I3
aI5
aI6
aI4
aI3
aI6
aI8
aI3
aI2
aI7
aI0
aI1
aa(lp89
I3
aI5
aI4
aI3
aI6
aI3
aI8
aI7
aI3
aI1
aI2
aI0
aa(lp90
I6
aI4
aI5
aI4
aI7
aI6
aI9
aI8
aI4
aI2
aI3
aI0
aI1
aa(lp91
I6
aI4
aI6
aI5
aI4
aI7
aI9
aI8
aI4
aI2
aI3
aI0
aI1
aa(lp92
I4
aI6
aI5
aI4
aI7
aI9
aI8
aI4
aI2
aI3
aI0
aI1
aa(lp93
I6
aI5
aI4
aI7
aI9
aI8
aI4
aI2
aI3
aI0
aI1
aa(lp94
I3
aI5
aI4
aI3
aI6
aI8
aI3
aI4
aI2
aI7
aI0
aI8
aI1
aa(lp95
I4
aI6
aI5
aI4
aI7
aI9
aI8
aI4
aI4
aI2
aI3
aI0
aI1
aa(lp96
I4
aI6
aI5
aI4
aI7
aI2
aI9
aI8
aI4
aI1
aI3
aI9
aI0
aa(lp97
I6
aI5
aI4
aI7
aI9
aI8
aI4
aI2
aI3
aI0
aI1
aa(lp98
I3
aI5
aI4
aI3
aI6
aI8
aI7
aI3
aI1
aI2
aI0
aa(lp99
I3
aI5
aI4
aI3
aI6
aI8
aI7
aI8
aI3
aI2
aI0
aI1
aa(lp100
I4
aI6
aI5
aI4
aI7
aI9
aI8
aI4
aI2
aI3
aI0
aI1
aa(lp101
I3
aI5
aI4
aI3
aI6
aI8
aI7
aI3
aI1
aI1
aI2
aI0
aa(lp102
I4
aI6
aI5
aI4
aI7
aI9
aI7
aI8
aI4
aI2
aI3
aI0
aI1
aa(lp103
I4
aI6
aI5
aI4
aI8
aI7
aI9
aI3
aI4
aI2
aI8
aI0
aI1
aa(lp104
I3
aI5
aI4
aI3
aI6
aI5
aI8
aI3
aI2
aI7
aI0
aI1
aa(lp105
I4
aI6
aI5
aI4
aI7
aI9
aI8
aI2
aI3
aI0
aI1
aa(lp106
I3
aI5
aI4
aI3
aI8
aI7
aI3
aI1
aI2
aI0
aI6
aa(lp107
I4
aI6
aI5
aI4
aI7
aI9
aI6
aI8
aI4
aI2
aI3
aI0
aI1
aa(lp108
I3
aI4
aI3
aI6
aI8
aI7
aI3
aI1
aI2
aI5
aI0
aa(lp109
I3
aI5
aI4
aI3
aI8
aI7
aI3
aI1
aI2
aI0
aI6
aa(lp110
I3
aI5
aI4
aI4
aI3
aI6
aI8
aI7
aI3
aI2
aI0
aI1
aa(lp111
I6
aI5
aI4
aI7
aI9
aI8
aI4
aI2
aI3
aI0
aI1
aa(lp112
I4
aI6
aI5
aI4
aI7
aI9
aI8
aI4
aI0
aI2
aI3
aI0
aI1
aa(lp113
I3
aI5
aI4
aI3
aI8
aI7
aI3
aI1
aI2
aI0
aI6
aa(lp114
I5
aI4
aI3
aI6
aI8
aI7
aI3
aI2
aI0
aI0
aI1
aa(lp115
I2
aI6
aI4
aI3
aI2
aI7
aI6
aI2
aI0
aI1
aI5
aa(lp116
I4
aI6
aI5
aI4
aI7
aI9
aI8
aI4
aI2
aI5
aI3
aI0
aI1
aa(lp117
I2
aI4
aI6
aI5
aI4
aI7
aI9
aI8
aI4
aI2
aI8
aI3
aI0
aI1
aa(lp118
I6
aI3
aI5
aI4
aI3
aI6
aI8
aI7
aI3
aI2
aI0
aI1
aa(lp119
I4
aI6
aI5
aI4
aI7
aI4
aI9
aI8
aI4
aI2
aI3
aI0
aI1
aa(lp120
I2
aI4
aI6
aI5
aI4
aI7
aI9
aI8
aI4
aI2
aI3
aI0
aI1
aa(lp121
I3
aI4
aI5
aI3
aI6
aI8
aI7
aI3
aI1
aI2
aI0
aa(lp122
I3
aI5
aI4
aI7
aI3
aI6
aI8
aI7
aI3
aI2
aI0
aI1
aa(lp123
I4
aI6
aI5
aI4
aI7
aI0
aI9
aI8
aI4
aI2
aI3
aI0
aI1
aa(lp124
I4
aI6
aI5
aI4
aI0
aI7
aI9
aI8
aI4
aI2
aI3
aI0
aI1
aa(lp125
I4
aI6
aI5
aI4
aI5
aI7
aI9
aI8
aI2
aI3
aI0
aI1
aa(lp126
I4
aI5
aI4
aI6
aI8
aI7
aI4
aI2
aI3
aI0
aI1
aa(lp127
I4
aI6
aI5
aI4
aI7
aI9
aI9
aI8
aI4
aI5
aI2
aI3
aI0
aI1
aa(lp128
I1
aI3
aI5
aI4
aI3
aI6
aI8
aI3
aI2
aI7
aI0
aI1
aa(lp129
I4
aI6
aI5
aI4
aI7
aI9
aI8
aI4
aI2
aI2
aI3
aI0
aI1
aa(lp130
I4
aI6
aI5
aI4
aI7
aI9
aI8
aI2
aI3
aI0
aI1
aa(lp131
I3
aI5
aI4
aI3
aI6
aI8
aI7
aI3
aI1
aI2
aI0
aa(lp132
I2
aI4
aI3
aI2
aI5
aI7
aI2
aI1
aI6
aI0
aa(lp133
I4
aI6
aI5
aI4
aI1
aI7
aI9
aI8
aI4
aI2
aI3
aI0
aI1
aa(lp134
I3
aI5
aI4
aI3
aI6
aI8
aI7
aI3
aI2
aI0
aI1
aa(lp135
I4
aI6
aI5
aI4
aI7
aI8
aI4
aI1
aI3
aI9
aI2
aI0
aa(lp136
I6
aI5
aI4
aI7
aI9
aI8
aI4
aI2
aI3
aI4
aI0
aI1
aa(lp137
I3
aI3
aI4
aI5
aI4
aI3
aI6
aI8
aI7
aI3
aI1
aI2
aI0
aa(lp138
I2
aI4
aI6
aI5
aI4
aI7
aI9
aI8
aI4
aI2
aI3
aI0
aI1
aa(lp139
I2
aI4
aI6
aI5
aI4
aI7
aI9
aI8
aI4
aI2
aI5
aI3
aI0
aI1
aa(lp140
I4
aI6
aI8
aI5
aI4
aI7
aI9
aI3
aI4
aI2
aI8
aI0
aI1
aa(lp141
I4
aI6
aI5
aI4
aI7
aI9
aI8
aI4
aI2
aI3
aI0
aI1
aa(lp142
I4
aI6
aI5
aI4
aI7
aI9
aI8
aI4
aI2
aI4
aI3
aI0
aI0
aI1
aa(lp143
I4
aI6
aI5
aI4
aI0
aI7
aI9
aI8
aI4
aI2
aI3
aI0
aI1
aa(lp144
I3
aI5
aI4
aI3
aI6
aI8
aI7
aI3
aI2
aI0
aI1
aa(lp145
I4
aI6
aI5
aI4
aI7
aI9
aI8
aI4
aI2
aI3
aI0
aI1
aa(lp146
I4
aI6
aI5
aI4
aI7
aI9
aI8
aI4
aI2
aI1
aI3
aI0
aI1
aa(lp147
I2
aI2
aI4
aI3
aI2
aI1
aI2
aI0
aI6
aI7
aI5
aa(lp148
I3
aI4
aI3
aI6
aI8
aI7
aI3
aI1
aI2
aI5
aI0
aa(lp149
I4
aI6
aI9
aI5
aI4
aI7
aI9
aI8
aI4
aI2
aI3
aI0
aI1
aa(lp150
I4
aI6
aI5
aI2
aI4
aI7
aI9
aI8
aI4
aI2
aI3
aI0
aI1
aa(lp151
I8
aI4
aI6
aI5
aI4
aI7
aI9
aI3
aI4
aI2
aI8
aI0
aI1
aa(lp152
I4
aI6
aI5
aI8
aI4
aI7
aI9
aI8
aI4
aI2
aI3
aI0
aI1
aa(lp153
I3
aI4
aI3
aI6
aI8
aI7
aI3
aI1
aI2
aI5
aI0
aa(lp154
I4
aI6
aI5
aI7
aI0
aI9
aI8
aI4
aI2
aI3
aI0
aI1
aa(lp155
I3
aI3
aI5
aI4
aI3
aI6
aI8
aI3
aI2
aI7
aI0
aI1
aa(lp156
I4
aI6
aI5
aI5
aI4
aI7
aI8
aI9
aI8
aI4
aI2
aI3
aI0
aI1
aa(lp157
I4
aI6
aI5
aI4
aI7
aI9
aI8
aI4
aI2
aI3
aI0
aI1
aa(lp158
I3
aI5
aI4
aI3
aI6
aI8
aI7
aI3
aI2
aI0
aI1
aa(lp159
I3
aI5
aI8
aI4
aI3
aI7
aI6
aI2
aI3
aI1
aI7
aI8
aI0
aa(lp160
I4
aI6
aI5
aI4
aI7
aI9
aI8
aI4
aI0
aI2
aI3
aI0
aI1
aa(lp161
I3
aI5
aI4
aI3
aI6
aI8
aI7
aI3
aI1
aI2
aI0
aa(lp162
I4
aI2
aI2
aI6
aI5
aI4
aI7
aI9
aI8
aI4
aI2
aI0
aI3
aI0
aI1
aa(lp163
I3
aI5
aI4
aI3
aI6
aI8
aI7
aI3
aI1
aI6
aI2
aI0
aa(lp164
I4
aI1
aI6
aI5
aI4
aI7
aI9
aI8
aI4
aI2
aI3
aI0
aI1
aa(lp165
I3
aI4
aI3
aI6
aI8
aI7
aI3
aI1
aI2
aI5
aI0
aa(lp166
I3
aI5
aI4
aI3
aI1
aI7
aI3
aI8
aI0
aI2
aI8
aI3
aI6
aa(lp167
I4
aI6
aI5
aI4
aI7
aI9
aI8
aI4
aI2
aI3
aI0
aI4
aI1
aa(lp168
I4
aI6
aI5
aI4
aI7
aI9
aI8
aI4
aI2
aI5
aI3
aI0
aI1
aa(lp169
I2
aI4
aI3
aI2
aI5
aI1
aI7
aI6
aI2
aI0
aI7
aa(lp170
I3
aI4
aI3
aI6
aI8
aI7
aI3
aI1
aI2
aI0
aI5
aa(lp171
I4
aI6
aI5
aI4
aI7
aI9
aI8
aI4
aI2
aI0
aI3
aI0
aI1
aa(lp172
I7
aI3
aI5
aI4
aI3
aI6
aI8
aI3
aI2
aI7
aI6
aI0
aI1
aa(lp173
I4
aI6
aI5
aI4
aI7
aI9
aI8
aI4
aI2
aI3
aI5
aI0
aI1
aa(lp174
I4
aI6
aI5
aI4
aI7
aI9
aI8
aI2
aI3
aI0
aI1
aa(lp175
I4
aI6
aI5
aI4
aI7
aI9
aI8
aI4
aI2
aI3
aI0
aI2
aI1
aa(lp176
I3
aI4
aI3
aI6
aI8
aI7
aI3
aI1
aI2
aI5
aI5
aI0
aa(lp177
I4
aI6
aI8
aI5
aI4
aI7
aI9
aI3
aI2
aI8
aI0
aI1
aa(lp178
I3
aI5
aI4
aI3
aI6
aI8
aI6
aI7
aI3
aI2
aI0
aI1
aa(lp179
I4
aI6
aI5
aI4
aI7
aI9
aI8
aI4
aI2
aI3
aI0
aI1
aa(lp180
I4
aI6
aI5
aI4
aI7
aI9
aI8
aI4
aI4
aI2
aI3
aI0
aI1
aa(lp181
I4
aI5
aI4
aI6
aI8
aI7
aI5
aI4
aI2
aI3
aI0
aI1
aa(lp182
I4
aI6
aI5
aI4
aI7
aI9
aI8
aI4
aI2
aI3
aI0
aI1
aa(lp183
I4
aI6
aI5
aI4
aI7
aI9
aI8
aI4
aI2
aI3
aI0
aI6
aI1
aa(lp184
I4
aI6
aI5
aI4
aI7
aI9
aI8
aI6
aI4
aI2
aI3
aI0
aI1
aa(lp185
I3
aI5
aI4
aI3
aI6
aI6
aI8
aI7
aI3
aI2
aI0
aI1
aa(lp186
I2
aI4
aI6
aI5
aI4
aI7
aI9
aI8
aI4
aI2
aI3
aI0
aI1
aa(lp187
I6
aI5
aI4
aI7
aI9
aI8
aI5
aI4
aI2
aI3
aI0
aI1
aa(lp188
I4
aI6
aI5
aI7
aI4
aI7
aI9
aI8
aI4
aI2
aI3
aI0
aI1
aa(lp189
I4
aI6
aI5
aI4
aI7
aI9
aI7
aI8
aI4
aI2
aI3
aI0
aI1
aa(lp190
I4
aI6
aI5
aI4
aI7
aI9
aI8
aI4
aI2
aI3
aI0
aI6
aI1
aa(lp191
I3
aI5
aI4
aI3
aI6
aI8
aI7
aI3
aI1
aI2
aI0
aa(lp192
I3
aI5
aI4
aI3
aI6
aI8
aI3
aI2
aI7
aI0
aI1
aa(lp193
I4
aI6
aI5
aI4
aI7
aI9
aI8
aI2
aI3
aI0
aI1
aa(lp194
I3
aI5
aI4
aI0
aI3
aI6
aI8
aI7
aI3
aI1
aI2
aI0
aa(lp195
I4
aI6
aI8
aI5
aI4
aI7
aI9
aI8
aI4
aI2
aI3
aI0
aI1
aa(lp196
I4
aI6
aI6
aI5
aI4
aI7
aI9
aI8
aI4
aI2
aI3
aI0
aI1
aa(lp197
I4
aI6
aI5
aI4
aI7
aI9
aI8
aI2
aI3
aI0
aI1
aa(lp198
I3
aI5
aI4
aI3
aI6
aI8
aI7
aI3
aI1
aI2
aI0
aa(lp199
I4
aI5
aI4
aI6
aI8
aI7
aI4
aI2
aI3
aI0
aI1
aa(lp200
I6
aI5
aI4
aI7
aI9
aI8
aI4
aI2
aI3
aI0
aI1
aa(lp201
I4
aI5
aI4
aI6
aI8
aI7
aI4
aI2
aI3
aI0
aI1
aa(lp202
I3
aI4
aI0
aI3
aI6
aI6
aI8
aI7
aI3
aI1
aI2
aI5
aI0
aa(lp203
I4
aI2
aI6
aI5
aI7
aI9
aI8
aI2
aI3
aI0
aI1
aa(lp204
I4
aI6
aI5
aI4
aI7
aI9
aI8
aI4
aI2
aI3
aI0
aI9
aI1
aa(lp205
I5
aI4
aI6
aI5
aI4
aI7
aI9
aI8
aI7
aI4
aI2
aI3
aI0
aI1
aa(lp206
I6
aI5
aI4
aI7
aI9
aI8
aI4
aI2
aI3
aI0
aI1
aa(lp207
I4
aI6
aI5
aI4
aI7
aI9
aI8
aI0
aI4
aI2
aI3
aI0
aI1
aa(lp208
I4
aI6
aI5
aI4
aI7
aI9
aI8
aI4
aI2
aI2
aI3
aI0
aI1
aa(lp209
I4
aI6
aI5
aI4
aI7
aI9
aI8
aI4
aI3
aI2
aI3
aI0
aI1
aa(lp210
I4
aI6
aI5
aI2
aI4
aI7
aI9
aI8
aI4
aI2
aI3
aI0
aI1
aa(lp211
I4
aI6
aI8
aI5
aI4
aI7
aI9
aI8
aI4
aI2
aI3
aI0
aI1
aa(lp212
I4
aI8
aI6
aI5
aI4
aI7
aI9
aI4
aI2
aI3
aI0
aI1
aa(lp213
I4
aI6
aI5
aI4
aI7
aI9
aI8
aI5
aI4
aI2
aI3
aI0
aI1
aa(lp214
I4
aI6
aI9
aI5
aI4
aI7
aI9
aI8
aI4
aI2
aI3
aI0
aI1
aa(lp215
I4
aI6
aI5
aI7
aI7
aI9
aI8
aI4
aI2
aI3
aI9
aI0
aI1
aa(lp216
I3
aI4
aI3
aI6
aI8
aI7
aI3
aI1
aI2
aI5
aI0
aa(lp217
I2
aI4
aI3
aI2
aI5
aI7
aI6
aI2
aI1
aI0
aa(lp218
I4
aI5
aI4
aI6
aI8
aI6
aI7
aI4
aI2
aI3
aI0
aI1
aa(lp219
I4
aI5
aI4
aI6
aI8
aI7
aI4
aI2
aI3
aI0
aI1
aa(lp220
I4
aI6
aI5
aI4
aI6
aI7
aI9
aI8
aI4
aI2
aI3
aI0
aI1
aa(lp221
I3
aI5
aI4
aI3
aI6
aI7
aI3
aI1
aI2
aI8
aI0
aa(lp222
I3
aI3
aI4
aI3
aI6
aI8
aI7
aI3
aI1
aI2
aI5
aI0
aa(lp223
I4
aI6
aI5
aI4
aI7
aI9
aI8
aI4
aI2
aI3
aI0
aI9
aI1
aa(lp224
I4
aI6
aI5
aI4
aI0
aI7
aI9
aI8
aI4
aI2
aI3
aI0
aI1
aa(lp225
I3
aI4
aI6
aI8
aI7
aI3
aI1
aI2
aI5
aI0
aa(lp226
I4
aI5
aI6
aI8
aI7
aI4
aI2
aI3
aI0
aI1
aa(lp227
I4
aI6
aI5
aI4
aI7
aI9
aI8
aI4
aI2
aI0
aI3
aI0
aI1
aa(lp228
I3
aI5
aI4
aI3
aI1
aI6
aI8
aI7
aI3
aI2
aI0
aI6
aa(lp229
I4
aI6
aI5
aI4
aI7
aI9
aI4
aI8
aI4
aI2
aI3
aI0
aI1
aa(lp230
I3
aI5
aI4
aI3
aI6
aI7
aI3
aI1
aI2
aI8
aI0
aa(lp231
I3
aI5
aI4
aI3
aI6
aI8
aI7
aI3
aI1
aI2
aI0
aa(lp232
I4
aI6
aI1
aI5
aI4
aI7
aI9
aI8
aI4
aI2
aI7
aI3
aI0
aI1
aa(lp233
I6
aI5
aI4
aI7
aI9
aI8
aI4
aI3
aI2
aI3
aI0
aI1
aa(lp234
I3
aI5
aI4
aI3
aI8
aI7
aI3
aI1
aI2
aI0
aI6
aa(lp235
I4
aI7
aI6
aI5
aI4
aI7
aI6
aI9
aI8
aI4
aI2
aI3
aI0
aI1
aa(lp236
I5
aI4
aI3
aI6
aI8
aI7
aI0
aI3
aI2
aI0
aI1
aa(lp237
I4
aI6
aI7
aI5
aI4
aI7
aI9
aI8
aI4
aI2
aI3
aI0
aI1
aa(lp238
I6
aI5
aI4
aI7
aI9
aI8
aI5
aI4
aI2
aI3
aI0
aI1
aa(lp239
I3
aI5
aI4
aI3
aI6
aI8
aI7
aI3
aI1
aI2
aI0
aa(lp240
I3
aI5
aI4
aI3
aI6
aI8
aI7
aI3
aI2
aI0
aI1
aa(lp241
I3
aI8
aI5
aI4
aI3
aI6
aI4
aI7
aI3
aI1
aI2
aI8
aI0
aa(lp242
I4
aI6
aI5
aI4
aI7
aI9
aI8
aI3
aI4
aI2
aI8
aI0
aI1
aa(lp243
I4
aI6
aI5
aI4
aI7
aI8
aI9
aI8
aI4
aI2
aI3
aI0
aI1
aa(lp244
I3
aI5
aI4
aI3
aI6
aI8
aI3
aI2
aI7
aI0
aI1
aa(lp245
I4
aI6
aI5
aI4
aI7
aI9
aI8
aI4
aI2
aI3
aI0
aI1
aa(lp246
I4
aI6
aI5
aI4
aI7
aI9
aI8
aI4
aI2
aI3
aI5
aI9
aI0
aI1
aa(lp247
I4
aI6
aI5
aI4
aI7
aI9
aI6
aI8
aI4
aI2
aI3
aI0
aI1
aa(lp248
I5
aI4
aI6
aI5
aI4
aI7
aI9
aI8
aI4
aI2
aI2
aI3
aI0
aI1
aa(lp249
I2
aI4
aI3
aI2
aI4
aI5
aI7
aI2
aI6
aI0
aI1
aa(lp250
I4
aI6
aI5
aI4
aI7
aI9
aI8
aI4
aI5
aI2
aI3
aI0
aI1
aa(lp251
I3
aI5
aI4
aI3
aI6
aI8
aI7
aI3
aI6
aI2
aI0
aI1
aa(lp252
I3
aI5
aI4
aI3
aI6
aI8
aI7
aI3
aI2
aI0
aI1
aa(lp253
I3
aI5
aI4
aI3
aI6
aI8
aI7
aI3
aI2
aI0
aI1
aa(lp254
I4
aI5
aI4
aI6
aI8
aI7
aI4
aI2
aI3
aI0
aI1
aa(lp255
I3
aI5
aI4
aI3
aI6
aI8
aI3
aI2
aI7
aI0
aI1
aa(lp256
I3
aI5
aI4
aI3
aI6
aI7
aI3
aI1
aI2
aI8
aI2
aI0
aa(lp257
I4
aI6
aI5
aI4
aI7
aI9
aI8
aI4
aI2
aI3
aI0
aI1
aa(lp258
I4
aI6
aI5
aI4
aI7
aI9
aI8
aI3
aI4
aI2
aI3
aI0
aI1
aa(lp259
I6
aI5
aI4
aI7
aI9
aI8
aI4
aI7
aI2
aI7
aI3
aI0
aI1
aa(lp260
I3
aI5
aI4
aI3
aI6
aI8
aI7
aI3
aI1
aI2
aI0
aI5
aa(lp261
I4
aI6
aI5
aI4
aI7
aI9
aI5
aI8
aI4
aI2
aI3
aI0
aI1
aa(lp262
I2
aI4
aI3
aI2
aI5
aI7
aI6
aI2
aI1
aI6
aI0
aa(lp263
I4
aI4
aI6
aI5
aI4
aI7
aI9
aI8
aI2
aI4
aI2
aI3
aI0
aI1
aa(lp264
I2
aI4
aI3
aI2
aI7
aI1
aI3
aI2
aI6
aI0
aI5
aa(lp265
I4
aI6
aI5
aI4
aI7
aI9
aI8
aI4
aI2
aI0
aI3
aI0
aI1
aa(lp266
I6
aI5
aI4
aI7
aI9
aI8
aI4
aI3
aI2
aI3
aI5
aI0
aI1
aa(lp267
I3
aI5
aI4
aI3
aI6
aI8
aI7
aI3
aI1
aI2
aI0
aa(lp268
I1
aI4
aI6
aI5
aI4
aI7
aI9
aI8
aI4
aI2
aI3
aI0
aI1
aa(lp269
I3
aI5
aI4
aI3
aI6
aI8
aI7
aI7
aI3
aI2
aI0
aI1
aa(lp270
I4
aI6
aI5
aI4
aI7
aI9
aI8
aI3
aI4
aI2
aI3
aI0
aI1
aa(lp271
I4
aI6
aI5
aI4
aI7
aI9
aI8
aI2
aI3
aI0
aI1
aa(lp272
I3
aI5
aI4
aI3
aI6
aI8
aI7
aI3
aI1
aI2
aI0
aa(lp273
I4
aI6
aI5
aI8
aI4
aI7
aI9
aI8
aI4
aI2
aI3
aI0
aI1
aa(lp274
I6
aI5
aI4
aI7
aI9
aI8
aI4
aI2
aI3
aI0
aI1
aa(lp275
I3
aI5
aI4
aI8
aI7
aI3
aI1
aI2
aI0
aI6
aI6
aa(lp276
I3
aI5
aI4
aI3
aI6
aI2
aI7
aI3
aI1
aI7
aI8
aI0
aa(lp277
I4
aI4
aI6
aI5
aI4
aI7
aI9
aI8
aI4
aI2
aI3
aI0
aI1
aa(lp278
I8
aI1
aI4
aI6
aI5
aI4
aI7
aI9
aI3
aI4
aI2
aI0
aI1
aa(lp279
I4
aI6
aI5
aI1
aI4
aI7
aI9
aI8
aI4
aI2
aI3
aI0
aI1
aa(lp280
I4
aI8
aI6
aI5
aI4
aI7
aI9
aI3
aI4
aI2
aI8
aI0
aI1
aa(lp281
I3
aI5
aI4
aI3
aI6
aI8
aI7
aI3
aI2
aI0
aI1
aa(lp282
I3
aI4
aI3
aI6
aI8
aI7
aI3
aI1
aI5
aI2
aI5
aI0
aa(lp283
I4
aI6
aI5
aI4
aI1
aI8
aI7
aI9
aI8
aI4
aI2
aI3
aI0
aI7
aa(lp284
I3
aI5
aI4
aI3
aI8
aI7
aI3
aI1
aI2
aI0
aI6
aa(lp285
I3
aI5
aI4
aI3
aI8
aI7
aI3
aI1
aI8
aI2
aI0
aI6
aa(lp286
I3
aI4
aI3
aI5
aI6
aI8
aI7
aI3
aI1
aI2
aI5
aI0
aa(lp287
I4
aI6
aI5
aI4
aI7
aI9
aI8
aI4
aI2
aI3
aI0
aI1
aa(lp288
I4
aI6
aI5
aI4
aI7
aI9
aI8
aI4
aI1
aI2
aI3
aI0
aI1
aa(lp289
I3
aI5
aI4
aI3
aI6
aI5
aI8
aI7
aI3
aI2
aI0
aI1
aa(lp290
I2
aI4
aI3
aI2
aI7
aI6
aI3
aI2
aI0
aI1
aI5
aa(lp291
I2
aI3
aI2
aI6
aI1
aI2
aI0
aI5
aI4
aa(lp292
I4
aI6
aI6
aI5
aI4
aI7
aI9
aI8
aI4
aI2
aI3
aI0
aI1
aa(lp293
I4
aI6
aI9
aI5
aI4
aI7
aI9
aI8
aI4
aI2
aI3
aI0
aI1
aa(lp294
I8
aI4
aI6
aI5
aI4
aI7
aI9
aI3
aI9
aI4
aI2
aI8
aI0
aI1
aa(lp295
I3
aI5
aI4
aI6
aI8
aI3
aI2
aI7
aI0
aI1
aa(lp296
I3
aI5
aI4
aI3
aI1
aI8
aI3
aI6
aI2
aI3
aI7
aI0
aI6
aa(lp297
I5
aI5
aI4
aI3
aI6
aI8
aI7
aI3
aI2
aI0
aI1
aa(lp298
I3
aI5
aI4
aI3
aI6
aI7
aI3
aI1
aI2
aI8
aI0
aa(lp299
I3
aI5
aI4
aI3
aI0
aI8
aI6
aI7
aI3
aI1
aI2
aI5
aa(lp300
I3
aI5
aI4
aI3
aI4
aI6
aI8
aI3
aI2
aI7
aI7
aI0
aI1
aa(lp301
I2
aI1
aI0
aI3
aa(lp302
I2
aI1
aI0
aI3
aa(lp303
I3
aI2
aI1
aI0
aI4
aa(lp304
I0
aI3
aI2
aI1
aI3
aI4
aa(lp305
I1
aI0
aa(lp306
I1
aI0
aI2
aa(lp307
I1
aI2
aI0
aI3
aa(lp308
I3
aI1
aI2
aI1
aI0
aI4
aa(lp309
I1
aI2
aI0
aI3
aa(lp310
I0
aI1
aa(lp311
I2
aI1
aI2
aI0
aI3
aa(lp312
I3
aI2
aI0
aI4
aI1
aa(lp313
I2
aI1
aI1
aI0
aI3
aa(lp314
I2
aI1
aI0
aa(lp315
I0
aI0
aa(lp316
I4
aI3
aI2
aI1
aI0
aI4
aa(lp317
I2
aI3
aI0
aI1
aa(lp318
I2
aI1
aI0
aI3
aI3
aa(lp319
I3
aI2
aI0
aI3
aI1
aI4
aa(lp320
I2
aI0
aI1
aI3
aa(lp321
I2
aI1
aI0
aI3
aa(lp322
I0
aI1
aa(lp323
I1
aI0
aa(lp324
I0
aI3
aI2
aI1
aI4
aa(lp325
I3
aI2
aI1
aI0
aa(lp326
I2
aI1
aI0
aa(lp327
I1
aI0
aI2
aa(lp328
I1
aI0
aI2
aa(lp329
I1
aI2
aI1
aI0
aa(lp330
I2
aI1
aI0
aI3
aa(lp331
I3
aI4
aI1
aI2
aI0
aa(lp332
I2
aI1
aI0
aI3
aI3
aa(lp333
I2
aI1
aI0
aI0
aI3
aa(lp334
I2
aI1
aI3
aI0
aI3
aa(lp335
I0
aa(lp336
I1
aI0
aI2
aa(lp337
I3
aI1
aI2
aI0
aI4
aa(lp338
I3
aI2
aI4
aI0
aI1
aa(lp339
I0
aI4
aI3
aI2
aI0
aI1
aa(lp340
I3
aI4
aI2
aI0
aI3
aI1
aa(lp341
I1
aI0
aI2
aa(lp342
I1
aI0
aa(lp343
I1
aI0
aI2
aa(lp344
I2
aI1
aI0
aI3
aa(lp345
I2
aI1
aI0
aa(lp346
I2
aI0
aI1
aI3
aa(lp347
I2
aI1
aI0
aI3
aa(lp348
I2
aI1
aI0
aa(lp349
I1
aI0
aI2
aa(lp350
I3
aI1
aI2
aI3
aI0
aI4
aa(lp351
I2
aI0
aI1
aI3
aa(lp352
I2
aI1
aI3
aI0
aI0
aI3
aa(lp353
I1
aI0
aa(lp354
I3
aI1
aI0
aI2
aI4
aa(lp355
I2
aI1
aI0
aa(lp356
I3
aI0
aI2
aI1
aa(lp357
I1
aI0
aI2
aa(lp358
I2
aI2
aI1
aI0
aI3
aa(lp359
I2
aI1
aI0
aa(lp360
I3
aI2
aI1
aI0
aI2
aI4
aa(lp361
I0
aI2
aI2
aI1
aI1
aI0
aI3
aa(lp362
I1
aI0
aI2
aa(lp363
I1
aI0
aa(lp364
I4
aI3
aI2
aI0
aI1
aa(lp365
I2
aI1
aI1
aI0
aa(lp366
I0
aI2
aI1
aI0
aI3
aa(lp367
I3
aI2
aI1
aI0
aI4
aa(lp368
I3
aI1
aI2
aI0
aI4
aa(lp369
I2
aI1
aI0
aa(lp370
I3
aI2
aI0
aI0
aI4
aI1
aa(lp371
I2
aI1
aI0
aI3
aa(lp372
I1
aI0
aI2
aa(lp373
I3
aI0
aI2
aI1
aI4
aa(lp374
I3
aI2
aI0
aI4
aI1
aa(lp375
I2
aI1
aI0
aa(lp376
I2
aI1
aI0
aa(lp377
I0
aI1
aa(lp378
I1
aI0
aa(lp379
I1
aI3
aI2
aI0
aa(lp380
I2
aI1
aI0
aI3
aI3
aa(lp381
I2
aI3
aI1
aI0
aI3
aa(lp382
I2
aI1
aI0
aI3
aa(lp383
I1
aI0
aI2
aa(lp384
I2
aI1
aI0
aI3
aa(lp385
I3
aI2
aI1
aI0
aI4
aa(lp386
I1
aI0
aI2
aa(lp387
I1
aI0
aI2
aa(lp388
I2
aI1
aI0
aa(lp389
I1
aI0
aI2
aa(lp390
I1
aI0
aI2
aa(lp391
I2
aI3
aI0
aI1
aI4
aa(lp392
I1
aI3
aI2
aI0
aI4
aa(lp393
I1
aI0
aI2
aa(lp394
I3
aI4
aI1
aI2
aI0
aa(lp395
I1
aI0
aI2
aa(lp396
I0
aI1
aI0
aI2
aa(lp397
I2
aI1
aI0
aI3
aa(lp398
I0
aI1
aa(lp399
I1
aI0
aI2
aa(lp400
I1
aI3
aI2
aI0
aa(lp401
I3
aI2
aI0
aI4
aI1
aa(lp402
I1
aI0
aI2
aa(lp403
I1
aI0
aI2
aa(lp404
I1
aI0
aI2
aa(lp405
I2
aI1
aI0
aI3
aa(lp406
I4
aI3
aI0
aI5
aI1
aI2
aI5
aa(lp407
I3
aI2
aI0
aI1
aI4
aa(lp408
I1
aI3
aI2
aI0
aI4
aa(lp409
I3
aI2
aI0
aI1
aa(lp410
I1
aI1
aI0
aI2
aa(lp411
I3
aI2
aI0
aI1
aI4
aa(lp412
I1
aI0
aI2
aa(lp413
I1
aI2
aI0
aI2
aa(lp414
I2
aI1
aI0
aI3
aa(lp415
I0
aI4
aI3
aI1
aI2
aI5
aa(lp416
I1
aI0
aI0
aI2
aa(lp417
I3
aI2
aI1
aI0
aI4
aa(lp418
I1
aI1
aI0
aI2
aa(lp419
I2
aI1
aI0
aI0
aI3
aa(lp420
I2
aI1
aI0
aa(lp421
I0
aI1
aa(lp422
I2
aI1
aI1
aI0
aI0
aI3
aa(lp423
I2
aI0
aI1
aI3
aa(lp424
I0
aI3
aI2
aI3
aI1
aI4
aa(lp425
I1
aI0
aI2
aa(lp426
I2
aI0
aI1
aI3
aa(lp427
I2
aI1
aI0
aI3
aa(lp428
I3
aI1
aI0
aI2
aI0
aI4
aa(lp429
I2
aI1
aI0
aI0
aI3
aa(lp430
I2
aI1
aI0
aa(lp431
I2
aI1
aI1
aI0
aa(lp432
I2
aI1
aI0
aI3
aa(lp433
I1
aI0
aI2
aa(lp434
I2
aI1
aI0
aI0
aI3
aa(lp435
I2
aI1
aI0
aI3
aI3
aa(lp436
I1
aI0
aa(lp437
I1
aI0
aI2
aa(lp438
I1
aI0
aI2
aa(lp439
I4
aI3
aI2
aI0
aI1
aI5
aa(lp440
I2
aI0
aI1
aI0
aI3
aa(lp441
I2
aI1
aI0
aI3
aI3
aa(lp442
I1
aI0
aI2
aa(lp443
I1
aI0
aI2
aa(lp444
I3
aI2
aI0
aI1
aI4
aa(lp445
I1
aI0
aI2
aa(lp446
I1
aI0
aa(lp447
I1
aI0
aI2
aa(lp448
I2
aI1
aI0
aa(lp449
I0
aI2
aI1
aI3
aa(lp450
I2
aI1
aI0
aI0
aI3
aa(lp451
I1
aI0
aI2
aa(lp452
I1
aI0
aI2
aa(lp453
I2
aI0
aI2
aI1
aI3
aa(lp454
I2
aI3
aI1
aI0
aI3
aa(lp455
I3
aI2
aI0
aI1
aI4
aa(lp456
I2
aI1
aI2
aI0
aI3
aa(lp457
I0
aI3
aI3
aI2
aI1
aI4
aa(lp458
I0
aI1
aI4
aI3
aI2
aI5
aa(lp459
I0
aI4
aI3
aI1
aI2
aI5
aa(lp460
I1
aI0
aI2
aa(lp461
I2
aI0
aI1
aI0
aI3
aa(lp462
I0
aI2
aI1
aa(lp463
I1
aI0
aI2
aa(lp464
I1
aI0
aI2
aa(lp465
I1
aI0
aI2
aa(lp466
I1
aI2
aI1
aI0
aI3
aa(lp467
I3
aI1
aI0
aI2
aI4
aa(lp468
I3
aI2
aI4
aI0
aI1
aa(lp469
I3
aI2
aI0
aI1
aI4
aa(lp470
I2
aI1
aI0
aa(lp471
I2
aI0
aI1
aI0
aa(lp472
I2
aI4
aI3
aI0
aI1
aa(lp473
I3
aI2
aI1
aI0
aI4
aa(lp474
I1
aI0
aI2
aI3
aa(lp475
I1
aI2
aI1
aI0
aI3
aa(lp476
I2
aI1
aI3
aI0
aa(lp477
I3
aI4
aI2
aI0
aI1
aa(lp478
I3
aI2
aI4
aI0
aI1
aa(lp479
I1
aI3
aI2
aI0
aI4
aa(lp480
I2
aI1
aI0
aI3
aa(lp481
I2
aI1
aI0
aI3
aI3
aa(lp482
I3
aI1
aI2
aI0
aI4
aa(lp483
I0
aI2
aI1
aa(lp484
I1
aI0
aI2
aa(lp485
I2
aI1
aI0
aI3
aa(lp486
I3
aI2
aI1
aI0
aa(lp487
I1
aI0
aI0
aI2
aa(lp488
I3
aI2
aI0
aI1
aI4
aa(lp489
I3
aI2
aI1
aI0
aI4
aa(lp490
I2
aI1
aI0
aa(lp491
I3
aI0
aI2
aI1
aI1
aa(lp492
I3
aI2
aI1
aI0
aa(lp493
I2
aI1
aI0
aI0
aI3
aa(lp494
I2
aI1
aI0
aa(lp495
I1
aI2
aI0
aI2
aa(lp496
I2
aI3
aI0
aI1
aa(lp497
I2
aI3
aI0
aI1
aa(lp498
I2
aI2
aI1
aI0
aI3
aa(lp499
I2
aI1
aI0
aI3
aa(lp500
I3
aI2
aI0
aI1
aI4
aa(lp501
I1
aI0
aI2
aa(lp502
I0
aI2
aI1
aI3
aa(lp503
I2
aI1
aI0
aa(lp504
I2
aI1
aI0
aI3
aa(lp505
I1
aI0
aI2
aa(lp506
I1
aI2
aI1
aI0
aI3
aa(lp507
I2
aI2
aI1
aI0
aI3
aa(lp508
I1
aI2
aI0
aa(lp509
I0
aI2
aI1
aI3
aa(lp510
I2
aI3
aI0
aI1
aI0
aI3
aa(lp511
I2
aI1
aI0
aa(lp512
I2
aI1
aI0
aI3
aa(lp513
I1
aI0
aI0
aI2
aa(lp514
I3
aI2
aI1
aI0
aI4
aa(lp515
I2
aI1
aI0
aa(lp516
I1
aI2
aI0
aI2
aa(lp517
I2
aI1
aI1
aI0
aa(lp518
I1
aI0
aa(lp519
I3
aI2
aI0
aI1
aI4
aa(lp520
I3
aI1
aI2
aI0
aI2
aI4
aa(lp521
I3
aI2
aI1
aI0
aI4
aa(lp522
I3
aI2
aI1
aI0
aI4
aI4
aa(lp523
I3
aI1
aI0
aI2
aI4
aa(lp524
I3
aI1
aI0
aI2
aa(lp525
I2
aI2
aI1
aI0
aa(lp526
I1
aI0
aI2
aa(lp527
I1
aI0
aI0
aI2
aa(lp528
I3
aI2
aI1
aI0
aI4
aa(lp529
I3
aI2
aI0
aI1
aI4
aa(lp530
I1
aI0
aI2
aa(lp531
I3
aI2
aI4
aI0
aI1
aa(lp532
I3
aI2
aI2
aI0
aI1
aa(lp533
I3
aI1
aI2
aI0
aI4
aa(lp534
I1
aI0
aI2
aa(lp535
I1
aI0
aI2
aa(lp536
I2
aI1
aI0
aI1
aI3
aa(lp537
I3
aI2
aI0
aI1
aI1
aI4
aa(lp538
I1
aI0
aI2
aa(lp539
I2
aI1
aI0
aa(lp540
I1
aI2
aI1
aI0
aI3
aa(lp541
I3
aI2
aI1
aI0
aI4
aa(lp542
I2
aI1
aI0
aa(lp543
I1
aI0
aI2
aa(lp544
I1
aI0
aI2
aa(lp545
I2
aI1
aI0
aa(lp546
I3
aI1
aI2
aI0
aI4
aa(lp547
I0
aI2
aI1
aI3
aa(lp548
I0
aI1
aI0
aI2
aa(lp549
I2
aI1
aI0
aa(lp550
I0
aI0
aI1
aa(lp551
I3
aI4
aI2
aI0
aI1
aa(lp552
I2
aI1
aI0
aa(lp553
I1
aI3
aI2
aI0
aI4
aa(lp554
I1
aI0
aI0
aI2
aa(lp555
I3
aI2
aI1
aI0
aI4
aa(lp556
I1
aI0
aI2
aa(lp557
I3
aI1
aI2
aI0
aI4
aa(lp558
I0
aI1
aa(lp559
I1
aI0
aI1
aI2
aa(lp560
I2
aI1
aI0
aI3
aa(lp561
I3
aI1
aI0
aI3
aI2
aI4
aa(lp562
I2
aI1
aI0
aI3
aa(lp563
I1
aI0
aI2
aa(lp564
I2
aI2
aI1
aI0
aI3
aa(lp565
I1
aI0
aI2
aa(lp566
I1
aI0
aI2
aa(lp567
I2
aI1
aI0
aI2
aa(lp568
I1
aI1
aI0
aI2
aa(lp569
I1
aI0
aI2
aa(lp570
I1
aI0
aa(lp571
I1
aI0
aI2
aa(lp572
I2
aI1
aI0
aI3
aa(lp573
I2
aI1
aI0
aa(lp574
I1
aI0
aI2
aa(lp575
I1
aI0
aI2
aa(lp576
I2
aI1
aI0
aa(lp577
I2
aI1
aI3
aI0
aI3
aa(lp578
I3
aI2
aI1
aI0
aI4
aa(lp579
I2
aI1
aI0
aI3
aa(lp580
I0
aI1
aa(lp581
I2
aI1
aI3
aI0
aa(lp582
I2
aI1
aI0
aI0
aI3
aa(lp583
I1
aI0
aI2
aa(lp584
I1
aI2
aI0
aI3
aa(lp585
I2
aI3
aI3
aI2
aI4
aI0
aI1
aa(lp586
I0
aI3
aI2
aI1
aI4
aa(lp587
I3
aI1
aI2
aI0
aI4
aa(lp588
I1
aI0
aI2
aa(lp589
I1
aI0
aI2
aa(lp590
I2
aI0
aI1
aI3
aa(lp591
I2
aI1
aI0
aI3
aa(lp592
I1
aI2
aI0
aI3
aa(lp593
I3
aI2
aI1
aI0
aI4
aa(lp594
I2
aI3
aI0
aI1
aI4
aa(lp595
I2
aI1
aI1
aI0
aI3
aa(lp596
I2
aI1
aI0
aI3
aa(lp597
I1
aI0
aI2
aa(lp598
I4
aI3
aI2
aI0
aI1
aI5
aa(lp599
I2
aI3
aI1
aI0
aI3
aa(lp600
I1
aI3
aI2
aI0
aI4
aa(lp601
I0
aI2
aI1
aa(lp602
I0
aI1
aa(lp603
I2
aI1
aI0
aa(lp604
I0
aa(lp605
I0
aa(lp606
I1
aI3
aI2
aI0
aa(lp607
I0
aI1
aa(lp608
I0
aa(lp609
I1
aI0
aI0
aa(lp610
I1
aI1
aI0
aa(lp611
I0
aI1
aI0
aa(lp612
I2
aI3
aI0
aI1
aa(lp613
I1
aI0
aa(lp614
I1
aI0
aa(lp615
I0
aa(lp616
I1
aI2
aI0
aa(lp617
I0
aI1
aa(lp618
I0
aa(lp619
I0
aa(lp620
I2
aI1
aI0
aa(lp621
I0
aI0
aa(lp622
I0
aa(lp623
I0
aa(lp624
I1
aI0
aI0
aa(lp625
I1
aI2
aI0
aa(lp626
I1
aI0
aa(lp627
I0
aa(lp628
I0
aa(lp629
I2
aI1
aI0
aa(lp630
I0
aI1
aa(lp631
I0
aa(lp632
I0
aa(lp633
I2
aI1
aI0
aa(lp634
I0
aI1
aI0
aa(lp635
I1
aI2
aI0
aa(lp636
I0
aa(lp637
I1
aI0
aa(lp638
I0
aa(lp639
I1
aI2
aI0
aa(lp640
I1
aI2
aI0
aa(lp641
I0
aa(lp642
I2
aI0
aI1
aa(lp643
I2
aI1
aI0
aa(lp644
I1
aI0
aa(lp645
I2
aI1
aI2
aI0
aa(lp646
I0
aa(lp647
I0
aa(lp648
I0
aI1
aI0
aa(lp649
I0
aI1
aa(lp650
I0
aa(lp651
I0
aa(lp652
I0
aI2
aI1
aI2
aI0
aa(lp653
I2
aI1
aI0
aa(lp654
I1
aI0
aa(lp655
I0
aa(lp656
I2
aI1
aI0
aa(lp657
I0
aa(lp658
I1
aI0
aa(lp659
I1
aI2
aI0
aa(lp660
I2
aI1
aI0
aa(lp661
I0
aa(lp662
I0
aa(lp663
I2
aI0
aI1
aI3
aa(lp664
I2
aI1
aI0
aa(lp665
I0
aa(lp666
I1
aI0
aa(lp667
I0
aa(lp668
I0
aa(lp669
I0
aI0
aa(lp670
I1
aI2
aI0
aa(lp671
I1
aI2
aI0
aa(lp672
I0
aI1
aa(lp673
I1
aI0
aa(lp674
I0
aI1
aa(lp675
I1
aI1
aI2
aI0
aa(lp676
I1
aI2
aI0
aa(lp677
I1
aI0
aa(lp678
I0
aa(lp679
I0
aa(lp680
I1
aI0
aa(lp681
I0
aa(lp682
I0
aa(lp683
I1
aI0
aa(lp684
I1
aI2
aI0
aa(lp685
I1
aI2
aI0
aa(lp686
I0
aa(lp687
I0
aa(lp688
I1
aI0
aa(lp689
I1
aI2
aI0
aa(lp690
I0
aI1
aa(lp691
I1
aI2
aI0
aa(lp692
I0
aa(lp693
I2
aI1
aI0
aa(lp694
I1
aI2
aI3
aI0
aa(lp695
I1
aI2
aI0
aa(lp696
I1
aI0
aa(lp697
I0
aa(lp698
I1
aI2
aI3
aI0
aa(lp699
I2
aI1
aI0
aa(lp700
I2
aI1
aI0
aI0
aa(lp701
I0
aI2
aI1
aa(lp702
I0
aI1
aa(lp703
I1
aI0
aa(lp704
I2
aI1
aI0
aa(lp705
I1
aI2
aI0
aa(lp706
I1
aI2
aI0
aa(lp707
I1
aI2
aI0
aa(lp708
I1
aI1
aI0
aa(lp709
I2
aI1
aI0
aa(lp710
I2
aI1
aI3
aI0
aa(lp711
I0
aa(lp712
I0
aa(lp713
I1
aI2
aI0
aa(lp714
I0
aa(lp715
I1
aI2
aI0
aa(lp716
I0
aa(lp717
I0
aI1
aI2
aa(lp718
I0
aa(lp719
I1
aI0
aa(lp720
I0
aa(lp721
I1
aI2
aI0
aa(lp722
I0
aa(lp723
I0
aa(lp724
I0
aa(lp725
I2
aI1
aI0
aa(lp726
I0
aa(lp727
I0
aa(lp728
I0
aa(lp729
I1
aI2
aI0
aa(lp730
I0
aa(lp731
I1
aI0
aa(lp732
I1
aI0
aa(lp733
I1
aI2
aI0
aa(lp734
I1
aI0
aa(lp735
I1
aI2
aI0
aa(lp736
I0
aa(lp737
I1
aI1
aI0
aa(lp738
I2
aI1
aI0
aa(lp739
I0
aI1
aa(lp740
I1
aI0
aa(lp741
I1
aI2
aI0
aa(lp742
I1
aI1
aI0
aa(lp743
I0
aa(lp744
I0
aI1
aa(lp745
I0
aa(lp746
I0
aI1
aa(lp747
I0
aa(lp748
I2
aI1
aI0
aa(lp749
I0
aa(lp750
I1
aI1
aI0
aa(lp751
I2
aI1
aI0
aa(lp752
I0
aa(lp753
I2
aI0
aI1
aa(lp754
I1
aI0
aI0
aa(lp755
I0
aa(lp756
I0
aa(lp757
I1
aI2
aI2
aI0
aa(lp758
I1
aI2
aI0
aa(lp759
I1
aI0
aa(lp760
I1
aI0
aa(lp761
I0
aa(lp762
I0
aa(lp763
I0
aa(lp764
I1
aI0
aa(lp765
I0
aa(lp766
I0
aa(lp767
I0
aa(lp768
I1
aI0
aI2
aa(lp769
I0
aa(lp770
I0
aa(lp771
I2
aI1
aI0
aa(lp772
I1
aI0
aa(lp773
I0
aa(lp774
I1
aI0
aa(lp775
I0
aa(lp776
I1
aI0
aa(lp777
I1
aI2
aI0
aa(lp778
I0
aa(lp779
I1
aI0
aa(lp780
I2
aI1
aI0
aa(lp781
I2
aI1
aI0
aa(lp782
I0
aa(lp783
I0
aa(lp784
I2
aI1
aI0
aa(lp785
I2
aI1
aI0
aa(lp786
I1
aI0
aa(lp787
I1
aI0
aa(lp788
I3
aI2
aI1
aI0
aa(lp789
I0
aI1
aa(lp790
I2
aI1
aI0
aa(lp791
I2
aI1
aI0
aa(lp792
I0
aa(lp793
I0
aa(lp794
I1
aI0
aa(lp795
I1
aI0
aa(lp796
I0
aa(lp797
I2
aI0
aI1
aa(lp798
I2
aI1
aI0
aa(lp799
I1
aI0
aa(lp800
I2
aI1
aI0
aa(lp801
I1
aI2
aI0
aa(lp802
I0
aa(lp803
I0
aa(lp804
I2
aI1
aI0
aa(lp805
I0
aI0
aa(lp806
I0
aa(lp807
I0
aa(lp808
I1
aI0
aa(lp809
I1
aI2
aI0
aa(lp810
I0
aa(lp811
I0
aI0
aa(lp812
I2
aI1
aI0
aa(lp813
I1
aI1
aI0
aa(lp814
I1
aI0
aa(lp815
I2
aI1
aI0
aa(lp816
I0
aa(lp817
I0
aa(lp818
I2
aI1
aI0
aa(lp819
I0
aI1
aI0
aa(lp820
I1
aI1
aI0
aa(lp821
I1
aI1
aI0
aa(lp822
I0
aa(lp823
I0
aa(lp824
I0
aa(lp825
I1
aI0
aa(lp826
I1
aI0
aa(lp827
I2
aI3
aI1
aI0
aa(lp828
I0
aa(lp829
I0
aa(lp830
I0
aa(lp831
I0
aa(lp832
I0
aa(lp833
I0
aa(lp834
I2
aI1
aI0
aa(lp835
I0
aa(lp836
I0
aa(lp837
I1
aI0
aa(lp838
I3
aI2
aI2
aI0
aI1
aa(lp839
I0
aa(lp840
I2
aI1
aI0
aa(lp841
I2
aI1
aI0
aa(lp842
I0
aa(lp843
I2
aI1
aI0
aa(lp844
I1
aI0
aa(lp845
I0
aa(lp846
I0
aI1
aa(lp847
I2
aI1
aI0
aa(lp848
I1
aI1
aI0
aa(lp849
I1
aI1
aI2
aI0
aa(lp850
I0
aa(lp851
I0
aa(lp852
I0
aa(lp853
I0
aa(lp854
I0
aa(lp855
I2
aI1
aI0
aa(lp856
I0
aa(lp857
I1
aI0
aa(lp858
I2
aI1
aI0
aa(lp859
I0
aI0
aa(lp860
I2
aI1
aI0
aa(lp861
I0
aa(lp862
I1
aI1
aI0
aa(lp863
I1
aI0
aa(lp864
I0
aI1
aI0
aa(lp865
I0
aI1
aa(lp866
I1
aI0
aa(lp867
I2
aI1
aI0
aa(lp868
I0
aa(lp869
I0
aa(lp870
I1
aI0
aa(lp871
I0
aa(lp872
I2
aI1
aI0
aa(lp873
I0
aa(lp874
I1
aI0
aa(lp875
I1
aI1
aI2
aI0
aa(lp876
I2
aI1
aI0
aa(lp877
I0
aa(lp878
I2
aI1
aI0
aa(lp879
I2
aI1
aI3
aI0
aa(lp880
I0
aa(lp881
I1
aI2
aI0
aa(lp882
I0
aa(lp883
I0
aa(lp884
I1
aI2
aI0
aa(lp885
I1
aI0
aI0
aa(lp886
I2
aI3
aI1
aI0
aa(lp887
I1
aI0
aa(lp888
I1
aI0
aa(lp889
I1
aI1
aI0
aa(lp890
I1
aI0
aI1
aa(lp891
I0
aa(lp892
I1
aI0
aa(lp893
I0
aa(lp894
I1
aI2
aI0
aa(lp895
I0
aa(lp896
I0
aa(lp897
I1
aI0
aa(lp898
I0
aa(lp899
I0
aa(lp900
I0
aa(lp901
I0
aa(lp902
I0
aa(lp903
I1
aI0
aa(lp904
I0
aa(lp905
I0
aa(lp906
I0
aI1
aI0
aa(lp907
I0
aa(lp908
I0
aa(lp909
I0
aa(lp910
I2
aI3
aI1
aI0
aa(lp911
I1
aI0
aa(lp912
I0
aa(lp913
I2
aI1
aI0
aa(lp914
I0
aa(lp915
I0
aa(lp916
I2
aI1
aI0
aa(lp917
I1
aI2
aI0
aa(lp918
I1
aI0
aa(lp919
I0
aa(lp920
I2
aI1
aI0
aa(lp921
I0
aa(lp922
I0
aa(lp923
I0
aI0
aa(lp924
I1
aI0
aI0
aa(lp925
I2
aI1
aI0
aa(lp926
I0
aI0
aa(lp927
I0
aI1
aI2
aa(lp928
I0
aa(lp929
I0
aa(lp930
I0
aa(lp931
I0
aI1
aa(lp932
I0
aa(lp933
I2
aI1
aI0
aa(lp934
I1
aI2
aI0
aa(lp935
I1
aI0
aa(lp936
I1
aI2
aI0
aa(lp937
I0
aa(lp938
I0
aa(lp939
I0
aa(lp940
I1
aI2
aI0
aa(lp941
I0
aa(lp942
I2
aI1
aI0
aa(lp943
I2
aI1
aI0
aa(lp944
I2
aI3
aI1
aI4
aI0
aa(lp945
I0
aa(lp946
I0
aI1
aa(lp947
I0
aa(lp948
I0
aa(lp949
I1
aI0
aa(lp950
I1
aI0
aa(lp951
I0
aI2
aI1
aa(lp952
I1
aI2
aI0
aa(lp953
I1
aI2
aI0
aa(lp954
I0
aa(lp955
I1
aI3
aI2
aI0
aa(lp956
I0
aa(lp957
I2
aI1
aI0
aI0
aI3
aa(lp958
I0
aa(lp959
I1
aI0
aa(lp960
I3
aI0
aI2
aI1
aa(lp961
I0
aa(lp962
I1
aI0
aa(lp963
I1
aI0
aa(lp964
I2
aI1
aI0
aa(lp965
I1
aI2
aI0
aa(lp966
I0
aa(lp967
I2
aI1
aI0
aa(lp968
I2
aI1
aI0
aa(lp969
I1
aI0
aa(lp970
I1
aI0
aa(lp971
I1
aI0
aa(lp972
I1
aI2
aI1
aI0
aa(lp973
I1
aI1
aI0
aa(lp974
I0
aa(lp975
I0
aI1
aa(lp976
I2
aI1
aI0
aI0
aI0
aa(lp977
I0
aa(lp978
I0
aa(lp979
I0
aI0
aa(lp980
I0
aa(lp981
I1
aI2
aI0
aa(lp982
I2
aI1
aI3
aI0
aa(lp983
I1
aI0
aa(lp984
I0
aa(lp985
I1
aI2
aI0
aa(lp986
I0
aa(lp987
I2
aI0
aI1
aa(lp988
I0
aa(lp989
I1
aI0
aa(lp990
I0
aI1
aa(lp991
I0
aa(lp992
I1
aI2
aI0
aa(lp993
I0
aa(lp994
I2
aI1
aI0
aa(lp995
I0
aa(lp996
I0
aI1
aI0
aa(lp997
I1
aI0
aa(lp998
I0
aI0
aa(lp999
I0
aa(lp1000
I1
aI2
aI0
aa.