(lp0
(lp1
I3
aI5
aI4
aI3
aI6
aI6
aI7
aI3
aI1
aI2
aI8
aI0
aa(lp2
I3
aI7
aI5
aI4
aI3
aI6
aI8
aI2
aI3
aI1
aI7
aI0
aa(lp3
I4
aI6
aI5
aI4
aI7
aI9
aI8
aI4
aI2
aI3
aI0
aI1
aa(lp4
I4
aI6
aI5
aI2
aI4
aI7
aI9
aI8
aI4
aI2
aI3
aI0
aI1
aa(lp5
I3
aI5
aI4
aI3
aI6
aI8
aI7
aI7
aI3
aI2
aI0
aI1
aa(lp6
I4
aI6
aI5
aI4
aI7
aI9
aI6
aI8
aI4
aI2
aI3
aI0
aI1
aa(lp7
I6
aI5
aI4
aI7
aI9
aI8
aI4
aI2
aI3
aI0
aI1
aa(lp8
I3
aI5
aI4
aI3
aI6
aI7
aI3
aI1
aI2
aI8
aI0
aa(lp9
I4
aI6
aI5
aI4
aI7
aI9
aI8
aI4
aI2
aI3
aI0
aI1
aa(lp10
I3
aI5
aI4
aI3
aI6
aI8
aI7
aI3
aI2
aI0
aI1
aa(lp11
I6
aI5
aI4
aI7
aI8
aI9
aI3
aI4
aI2
aI8
aI0
aI1
aa(lp12
I4
aI6
aI5
aI4
aI7
aI9
aI8
aI6
aI4
aI2
aI3
aI0
aI1
aa(lp13
I0
aI4
aI6
aI5
aI4
aI7
aI9
aI8
aI4
aI2
aI3
aI0
aI1
aa(lp14
I2
aI5
aI4
aI6
aI8
aI7
aI4
aI2
aI3
aI0
aI1
aa(lp15
I3
aI5
aI4
aI3
aI8
aI7
aI3
aI1
aI2
aI0
aI6
aa(lp16
I3
aI5
aI4
aI3
aI6
aI8
aI7
aI3
aI2
aI0
aI1
aa(lp17
I4
aI6
aI5
aI7
aI9
aI8
aI4
aI2
aI4
aI3
aI0
aI1
aa(lp18
I4
aI6
aI5
aI2
aI4
aI7
aI9
aI8
aI4
aI2
aI3
aI0
aI1
aa(lp19
I3
aI3
aI5
aI7
aI2
aI3
aI1
aI6
aI4
aI0
aa(lp20
I4
aI6
aI5
aI5
aI4
aI7
aI9
aI8
aI4
aI2
aI3
aI0
aI1
aa(lp21
I4
aI6
aI5
aI4
aI7
aI9
aI8
aI4
aI2
aI3
aI0
aI7
aI1
aa(lp22
I4
aI9
aI6
aI5
aI4
aI7
aI9
aI8
aI4
aI2
aI3
aI0
aI1
aa(lp23
I3
aI5
aI4
aI3
aI6
aI8
aI3
aI2
aI7
aI5
aI0
aI1
aa(lp24
I3
aI5
aI4
aI3
aI6
aI8
aI7
aI3
aI2
aI0
aI1
aa(lp25
I3
aI5
aI4
aI3
aI6
aI7
aI3
aI1
aI2
aI8
aI0
aa(lp26
I3
aI5
aI4
aI3
aI4
aI6
aI8
aI7
aI3
aI2
aI0
aI1
aa(lp27
I4
aI6
aI5
aI4
aI7
aI9
aI8
aI4
aI2
aI3
aI0
aI1
aa(lp28
I3
aI4
aI5
aI3
aI6
aI8
aI7
aI3
aI1
aI2
aI5
aI0
aa(lp29
I3
aI5
aI4
aI3
aI8
aI7
aI3
aI1
aI2
aI0
aI6
aa(lp30
I4
aI8
aI6
aI5
aI4
aI7
aI9
aI8
aI4
aI2
aI3
aI0
aI1
aa(lp31
I4
aI6
aI5
aI4
aI7
aI9
aI8
aI4
aI2
aI3
aI0
aI1
aa(lp32
I3
aI5
aI4
aI3
aI6
aI8
aI7
aI3
aI2
aI0
aI1
aa(lp33
I4
aI6
aI5
aI4
aI7
aI9
aI8
aI4
aI2
aI3
aI0
aI1
aa(lp34
I4
aI6
aI5
aI4
aI7
aI9
aI8
aI2
aI3
aI9
aI0
aI1
aa(lp35
I3
aI5
aI4
aI3
aI6
aI8
aI7
aI3
aI2
aI0
aI1
aa(lp36
I3
aI4
aI3
aI6
aI8
aI7
aI3
aI1
aI2
aI5
aI6
aI1
aI0
aa(lp37
I4
aI6
aI8
aI5
aI4
aI7
aI9
aI3
aI4
aI2
aI8
aI0
aI1
aa(lp38
I3
aI5
aI4
aI3
aI6
aI8
aI7
aI3
aI1
aI2
aI0
aa(lp39
I3
aI5
aI4
aI3
aI6
aI8
aI7
aI3
aI2
aI0
aI1
aa(lp40
I6
aI5
aI4
aI7
aI9
aI8
aI2
aI3
aI0
aI1
aa(lp41
I3
aI5
aI4
aI3
aI7
aI6
aI8
aI2
aI3
aI7
aI0
aI1
aa(lp42
I4
aI6
aI5
aI4
aI7
aI9
aI8
aI4
aI2
aI3
aI0
aI1
aa(lp43
I4
aI3
aI5
aI4
aI3
aI6
aI7
aI3
aI1
aI6
aI2
aI8
aI0
aa(lp44
I3
aI5
aI4
aI3
aI6
aI7
aI3
aI1
aI2
aI8
aI3
aI0
aa(lp45
I3
aI5
aI4
aI3
aI6
aI8
aI7
aI3
aI2
aI0
aI1
aa(lp46
I3
aI2
aI5
aI4
aI3
aI6
aI7
aI3
aI1
aI2
aI8
aI0
aa(lp47
I3
aI5
aI4
aI3
aI1
aI7
aI8
aI3
aI0
aI2
aI8
aI6
aa(lp48
I4
aI6
aI5
aI4
aI7
aI9
aI8
aI4
aI2
aI3
aI0
aI7
aI1
aa(lp49
I4
aI6
aI5
aI7
aI9
aI8
aI4
aI2
aI3
aI0
aI1
aa(lp50
I2
aI4
aI3
aI2
aI1
aI2
aI0
aI6
aI5
aa(lp51
I4
aI5
aI4
aI3
aI5
aI6
aI8
aI7
aI4
aI2
aI3
aI0
aI1
aa(lp52
I3
aI5
aI4
aI3
aI6
aI7
aI3
aI1
aI2
aI8
aI0
aa(lp53
I3
aI8
aI5
aI4
aI3
aI6
aI7
aI3
aI1
aI2
aI8
aI0
aa(lp54
I4
aI6
aI5
aI4
aI7
aI9
aI8
aI4
aI2
aI4
aI5
aI3
aI0
aI1
aa(lp55
I4
aI5
aI4
aI7
aI9
aI8
aI6
aI4
aI2
aI3
aI0
aI1
aa(lp56
I3
aI5
aI4
aI3
aI6
aI7
aI3
aI1
aI2
aI6
aI8
aI0
aa(lp57
I4
aI6
aI5
aI7
aI9
aI8
aI4
aI2
aI3
aI0
aI1
aa(lp58
I3
aI5
aI4
aI3
aI8
aI7
aI3
aI1
aI2
aI0
aI6
aa(lp59
I4
aI1
aI6
aI5
aI4
aI7
aI9
aI8
aI4
aI2
aI3
aI0
aI1
aa(lp60
I2
aI3
aI2
aI5
aI7
aI6
aI2
aI6
aI1
aI4
aI0
aa(lp61
I3
aI5
aI4
aI6
aI8
aI7
aI3
aI1
aI2
aI0
aa(lp62
I4
aI6
aI5
aI4
aI7
aI9
aI8
aI8
aI4
aI2
aI3
aI0
aI1
aa(lp63
I4
aI6
aI5
aI4
aI8
aI7
aI9
aI8
aI4
aI2
aI3
aI0
aI1
aa(lp64
I4
aI6
aI5
aI4
aI7
aI9
aI8
aI4
aI2
aI3
aI0
aI1
aa(lp65
I4
aI6
aI5
aI4
aI7
aI9
aI8
aI4
aI2
aI3
aI7
aI0
aI1
aa(lp66
I3
aI5
aI4
aI3
aI6
aI8
aI7
aI3
aI1
aI2
aI0
aa(lp67
I4
aI6
aI5
aI4
aI7
aI9
aI8
aI4
aI2
aI3
aI0
aI1
aa(lp68
I6
aI3
aI5
aI4
aI3
aI6
aI8
aI7
aI3
aI2
aI0
aI1
aa(lp69
I4
aI6
aI5
aI4
aI7
aI9
aI8
aI2
aI3
aI0
aI1
aa(lp70
I4
aI5
aI4
aI6
aI8
aI7
aI4
aI2
aI3
aI0
aI1
aa(lp71
I3
aI5
aI4
aI3
aI6
aI8
aI3
aI2
aI7
aI0
aI1
aa(lp72
I4
aI6
aI5
aI7
aI9
aI8
aI4
aI2
aI3
aI0
aI1
aa(lp73
I4
aI6
aI5
aI4
aI7
aI9
aI2
aI8
aI4
aI2
aI3
aI0
aI1
aa(lp74
I4
aI6
aI5
aI4
aI7
aI9
aI2
aI8
aI4
aI2
aI8
aI3
aI0
aI1
aa(lp75
I4
aI6
aI5
aI4
aI7
aI9
aI8
aI4
aI2
aI3
aI0
aI1
aa(lp76
I3
aI5
aI4
aI3
aI6
aI8
aI7
aI3
aI2
aI0
aI1
aa(lp77
I4
aI6
aI5
aI4
aI7
aI9
aI8
aI9
aI4
aI2
aI3
aI0
aI1
aa(lp78
I3
aI5
aI4
aI3
aI6
aI8
aI7
aI3
aI1
aI2
aI0
aa(lp79
I4
aI6
aI5
aI4
aI7
aI9
aI8
aI4
aI2
aI3
aI3
aI0
aI1
aa(lp80
I4
aI6
aI5
aI4
aI7
aI9
aI4
aI8
aI4
aI2
aI3
aI0
aI1
aa(lp81
I4
aI6
aI5
aI7
aI9
aI8
aI4
aI2
aI3
aI0
aI1
aa(lp82
I6
aI5
aI4
aI7
aI9
aI8
aI4
aI2
aI3
aI0
aI1
aa(lp83
I3
aI5
aI4
aI3
aI6
aI8
aI3
aI2
aI7
aI0
aI1
aa(lp84
I4
aI6
aI5
aI4
aI2
aI7
aI9
aI8
aI2
aI3
aI0
aI5
aI1
aa(lp85
I4
aI6
aI5
aI4
aI7
aI9
aI8
aI4
aI2
aI3
aI0
aI1
aa(lp86
I8
aI4
aI6
aI5
aI4
aI7
aI9
aI3
aI4
aI8
aI2
aI8
aI0
aI1
aa(lp87
I4
aI6
aI5
aI4
aI7
aI9
aI8
aI3
aI9
aI2
aI3
aI0
aI1
aa(lp88
I3
aI5
aI7
aI4
aI3
aI6
aI8
aI7
aI2
aI3
aI0
aI1
aa(lp89
I6
aI5
aI4
aI7
aI9
aI8
aI4
aI2
aI3
aI0
aI1
aa(lp90
I5
aI4
aI3
aI6
aI8
aI3
aI2
aI7
aI0
aI1
aa(lp91
I4
aI6
aI5
aI4
aI7
aI9
aI8
aI4
aI2
aI3
aI0
aI1
aa(lp92
I6
aI5
aI4
aI7
aI9
aI8
aI4
aI2
aI3
aI3
aI0
aI1
aa(lp93
I4
aI8
aI6
aI5
aI4
aI7
aI9
aI3
aI4
aI2
aI8
aI0
aI1
aa(lp94
I4
aI6
aI5
aI4
aI7
aI9
aI8
aI4
aI2
aI3
aI0
aI1
aa(lp95
I4
aI4
aI6
aI5
aI4
aI7
aI9
aI8
aI4
aI2
aI3
aI0
aI1
aa(lp96
I4
aI6
aI5
aI7
aI9
aI8
aI4
aI2
aI3
aI0
aI1
aa(lp97
I3
aI5
aI4
aI3
aI6
aI8
aI7
aI3
aI2
aI0
aI1
aa(lp98
I3
aI5
aI4
aI3
aI6
aI7
aI3
aI1
aI2
aI8
aI0
aa(lp99
I4
aI6
aI5
aI4
aI7
aI9
aI8
aI4
aI2
aI3
aI0
aI1
aa(lp100
I3
aI5
aI4
aI3
aI8
aI7
aI3
aI1
aI2
aI5
aI0
aI6
aa(lp101
I4
aI6
aI5
aI7
aI9
aI8
aI4
aI2
aI3
aI0
aI1
aa(lp102
I3
aI5
aI4
aI3
aI6
aI8
aI7
aI3
aI1
aI2
aI0
aa(lp103
I4
aI6
aI5
aI4
aI7
aI9
aI8
aI4
aI2
aI3
aI0
aI1
aa(lp104
I3
aI5
aI4
aI3
aI8
aI7
aI3
aI1
aI2
aI0
aI6
aa(lp105
I3
aI5
aI4
aI3
aI3
aI8
aI7
aI3
aI1
aI2
aI0
aI6
aa(lp106
I3
aI5
aI4
aI3
aI6
aI7
aI3
aI1
aI2
aI8
aI0
aa(lp107
I3
aI5
aI4
aI3
aI6
aI7
aI3
aI1
aI2
aI8
aI0
aa(lp108
I4
aI6
aI5
aI4
aI7
aI9
aI8
aI4
aI2
aI3
aI0
aI1
aa(lp109
I4
aI6
aI5
aI4
aI7
aI9
aI8
aI4
aI2
aI3
aI0
aI1
aa(lp110
I3
aI5
aI4
aI3
aI8
aI7
aI3
aI1
aI4
aI2
aI0
aI6
aa(lp111
I4
aI6
aI5
aI4
aI7
aI9
aI8
aI4
aI2
aI3
aI0
aI1
aa(lp112
I3
aI7
aI4
aI3
aI6
aI8
aI7
aI3
aI1
aI2
aI5
aI0
aa(lp113
I3
aI4
aI3
aI0
aI6
aI8
aI7
aI3
aI1
aI2
aI5
aI0
aa(lp114
I3
aI5
aI4
aI3
aI6
aI8
aI7
aI3
aI1
aI2
aI0
aa(lp115
I4
aI6
aI5
aI4
aI7
aI9
aI8
aI4
aI2
aI3
aI5
aI0
aI1
aa(lp116
I3
aI3
aI5
aI7
aI2
aI3
aI1
aI6
aI4
aI0
aa(lp117
I9
aI4
aI6
aI5
aI4
aI7
aI9
aI8
aI4
aI2
aI3
aI0
aI1
aa(lp118
I3
aI5
aI4
aI3
aI6
aI8
aI7
aI1
aI1
aI2
aI0
aa(lp119
I4
aI6
aI5
aI4
aI7
aI9
aI8
aI4
aI2
aI3
aI0
aI1
aa(lp120
I3
aI5
aI4
aI3
aI8
aI7
aI3
aI1
aI2
aI0
aI6
aa(lp121
I3
aI4
aI8
aI3
aI6
aI8
aI7
aI3
aI1
aI2
aI5
aI0
aa(lp122
I3
aI5
aI4
aI3
aI7
aI6
aI8
aI7
aI3
aI2
aI0
aI1
aa(lp123
I4
aI6
aI5
aI4
aI7
aI9
aI8
aI4
aI6
aI2
aI3
aI0
aI1
aa(lp124
I4
aI6
aI5
aI4
aI7
aI9
aI8
aI2
aI3
aI0
aI1
aa(lp125
I4
aI6
aI5
aI4
aI9
aI8
aI4
aI2
aI3
aI0
aI7
aI1
aa(lp126
I4
aI6
aI6
aI5
aI4
aI7
aI9
aI8
aI4
aI2
aI3
aI3
aI0
aI1
aa(lp127
I4
aI6
aI5
aI4
aI7
aI9
aI8
aI6
aI4
aI2
aI3
aI0
aI1
aa(lp128
I3
aI4
aI3
aI6
aI8
aI7
aI3
aI1
aI2
aI5
aI0
aa(lp129
I4
aI6
aI5
aI4
aI7
aI9
aI8
aI4
aI2
aI3
aI0
aI4
aI1
aa(lp130
I3
aI5
aI4
aI3
aI6
aI7
aI3
aI1
aI2
aI8
aI0
aa(lp131
I4
aI6
aI5
aI4
aI7
aI9
aI8
aI4
aI2
aI3
aI0
aI1
aa(lp132
I3
aI5
aI4
aI3
aI6
aI8
aI7
aI3
aI2
aI0
aI1
aa(lp133
I3
aI4
aI3
aI6
aI8
aI7
aI6
aI3
aI1
aI2
aI5
aI0
aa(lp134
I4
aI6
aI8
aI5
aI4
aI7
aI9
aI8
aI4
aI2
aI3
aI0
aI1
aa(lp135
I4
aI5
aI4
aI7
aI9
aI6
aI8
aI4
aI2
aI3
aI0
aI1
aa(lp136
I5
aI4
aI3
aI6
aI8
aI7
aI3
aI1
aI2
aI0
aa(lp137
I4
aI6
aI5
aI4
aI7
aI9
aI8
aI4
aI2
aI3
aI0
aI1
aa(lp138
I4
aI6
aI5
aI1
aI4
aI1
aI9
aI7
aI8
aI4
aI2
aI3
aI0
aI3
aI7
aa(lp139
I3
aI5
aI4
aI3
aI8
aI7
aI3
aI1
aI2
aI0
aI6
aa(lp140
I4
aI6
aI5
aI4
aI7
aI9
aI8
aI0
aI4
aI2
aI3
aI0
aI1
aa(lp141
I4
aI9
aI6
aI5
aI4
aI7
aI9
aI8
aI4
aI2
aI3
aI0
aI1
aa(lp142
I3
aI5
aI4
aI3
aI8
aI7
aI3
aI1
aI2
aI0
aI6
aa(lp143
I4
aI6
aI5
aI4
aI7
aI9
aI8
aI4
aI2
aI3
aI3
aI0
aI1
aa(lp144
I4
aI6
aI5
aI7
aI9
aI8
aI4
aI2
aI3
aI0
aI1
aa(lp145
I2
aI3
aI2
aI7
aI1
aI2
aI0
aI6
aI4
aI5
aa(lp146
I4
aI6
aI5
aI4
aI5
aI7
aI9
aI8
aI4
aI2
aI3
aI0
aI1
aa(lp147
I4
aI6
aI7
aI5
aI4
aI7
aI9
aI8
aI4
aI2
aI3
aI0
aI1
aa(lp148
I3
aI5
aI4
aI3
aI6
aI7
aI3
aI1
aI2
aI8
aI0
aa(lp149
I4
aI6
aI5
aI7
aI9
aI8
aI4
aI2
aI3
aI0
aI1
aa(lp150
I3
aI4
aI3
aI5
aI2
aI3
aI1
aI6
aI7
aI0
aa(lp151
I4
aI6
aI5
aI7
aI9
aI8
aI4
aI2
aI3
aI0
aI1
aa(lp152
I4
aI6
aI5
aI4
aI7
aI9
aI8
aI4
aI2
aI3
aI0
aI1
aa(lp153
I4
aI6
aI5
aI4
aI7
aI9
aI8
aI3
aI2
aI3
aI0
aI1
aa(lp154
I4
aI6
aI5
aI4
aI7
aI9
aI8
aI4
aI2
aI3
aI0
aI1
aa(lp155
I3
aI5
aI7
aI4
aI3
aI6
aI8
aI7
aI6
aI3
aI2
aI0
aI1
aa(lp156
I4
aI6
aI5
aI5
aI4
aI7
aI9
aI8
aI2
aI3
aI0
aI1
aa(lp157
I2
aI4
aI6
aI5
aI4
aI7
aI9
aI8
aI4
aI2
aI3
aI0
aI1
aa(lp158
I4
aI6
aI5
aI4
aI7
aI9
aI8
aI4
aI2
aI3
aI0
aI5
aI1
aa(lp159
I2
aI3
aI2
aI5
aI7
aI2
aI1
aI6
aI4
aI0
aa(lp160
I4
aI6
aI5
aI8
aI4
aI7
aI9
aI6
aI3
aI4
aI2
aI8
aI0
aI1
aa(lp161
I5
aI4
aI6
aI5
aI4
aI7
aI9
aI8
aI4
aI2
aI3
aI0
aI1
aa(lp162
I4
aI6
aI5
aI4
aI7
aI9
aI8
aI4
aI3
aI2
aI3
aI0
aI1
aa(lp163
I4
aI5
aI0
aI4
aI6
aI8
aI7
aI4
aI2
aI3
aI0
aI1
aa(lp164
I4
aI6
aI5
aI4
aI7
aI9
aI8
aI2
aI4
aI2
aI3
aI0
aI1
aa(lp165
I3
aI4
aI3
aI6
aI8
aI7
aI3
aI1
aI2
aI0
aI5
aI0
aa(lp166
I3
aI5
aI4
aI3
aI6
aI7
aI3
aI1
aI2
aI8
aI0
aa(lp167
I3
aI5
aI5
aI4
aI3
aI6
aI8
aI7
aI3
aI2
aI0
aI1
aa(lp168
I3
aI5
aI4
aI3
aI6
aI7
aI8
aI3
aI2
aI7
aI0
aI1
aa(lp169
I3
aI5
aI4
aI3
aI7
aI6
aI8
aI2
aI3
aI1
aI7
aI0
aa(lp170
I3
aI5
aI4
aI3
aI8
aI7
aI3
aI1
aI2
aI0
aI6
aa(lp171
I4
aI6
aI5
aI4
aI7
aI9
aI8
aI4
aI6
aI2
aI3
aI0
aI5
aI1
aa(lp172
I4
aI6
aI5
aI4
aI7
aI9
aI8
aI4
aI2
aI8
aI3
aI0
aI1
aa(lp173
I3
aI5
aI4
aI3
aI8
aI7
aI5
aI3
aI1
aI2
aI0
aI3
aI6
aa(lp174
I4
aI4
aI6
aI5
aI4
aI7
aI9
aI8
aI4
aI2
aI3
aI0
aI1
aa(lp175
I3
aI5
aI4
aI3
aI5
aI6
aI8
aI3
aI2
aI7
aI0
aI1
aa(lp176
I3
aI5
aI4
aI3
aI8
aI7
aI3
aI1
aI2
aI0
aI6
aa(lp177
I3
aI5
aI4
aI3
aI6
aI8
aI7
aI3
aI1
aI2
aI0
aa(lp178
I4
aI6
aI5
aI4
aI0
aI7
aI9
aI8
aI4
aI2
aI3
aI0
aI1
aa(lp179
I4
aI6
aI5
aI4
aI7
aI9
aI8
aI4
aI2
aI3
aI0
aI1
aa(lp180
I3
aI5
aI4
aI3
aI6
aI8
aI7
aI3
aI1
aI2
aI0
aa(lp181
I1
aI4
aI6
aI5
aI4
aI7
aI9
aI2
aI8
aI4
aI2
aI3
aI0
aI1
aa(lp182
I4
aI6
aI5
aI4
aI7
aI9
aI8
aI3
aI4
aI2
aI3
aI0
aI1
aa(lp183
I4
aI6
aI5
aI4
aI7
aI9
aI8
aI4
aI2
aI3
aI0
aI1
aa(lp184
I3
aI0
aI5
aI4
aI3
aI6
aI8
aI7
aI3
aI2
aI0
aI1
aa(lp185
I3
aI5
aI4
aI3
aI6
aI8
aI7
aI3
aI1
aI2
aI0
aa(lp186
I4
aI6
aI5
aI4
aI7
aI9
aI8
aI4
aI2
aI3
aI0
aI1
aa(lp187
I4
aI8
aI6
aI5
aI4
aI7
aI9
aI3
aI4
aI2
aI8
aI0
aI1
aa(lp188
I6
aI4
aI6
aI5
aI4
aI7
aI9
aI8
aI2
aI3
aI0
aI1
aa(lp189
I6
aI5
aI4
aI7
aI9
aI8
aI4
aI2
aI0
aI3
aI0
aI1
aa(lp190
I4
aI6
aI5
aI4
aI7
aI9
aI8
aI4
aI4
aI2
aI3
aI0
aI1
aa(lp191
I4
aI6
aI5
aI4
aI7
aI9
aI8
aI4
aI2
aI3
aI0
aI1
aa(lp192
I4
aI6
aI5
aI4
aI7
aI9
aI8
aI4
aI2
aI3
aI0
aI1
aa(lp193
I3
aI5
aI4
aI3
aI6
aI8
aI7
aI3
aI2
aI0
aI1
aa(lp194
I4
aI6
aI5
aI4
aI7
aI9
aI8
aI4
aI2
aI3
aI0
aI1
aa(lp195
I3
aI5
aI4
aI3
aI6
aI7
aI3
aI1
aI2
aI8
aI0
aa(lp196
I4
aI6
aI6
aI5
aI4
aI7
aI9
aI6
aI8
aI4
aI2
aI3
aI0
aI1
aa(lp197
I3
aI5
aI4
aI3
aI6
aI8
aI7
aI3
aI2
aI0
aI1
aa(lp198
I3
aI4
aI3
aI5
aI7
aI2
aI3
aI6
aI0
aI1
aa(lp199
I4
aI6
aI5
aI4
aI7
aI9
aI8
aI4
aI2
aI3
aI0
aI1
aa(lp200
I0
aI3
aI5
aI4
aI4
aI3
aI6
aI8
aI7
aI3
aI1
aI2
aI0
aa(lp201
I4
aI6
aI6
aI5
aI4
aI7
aI9
aI8
aI4
aI2
aI3
aI0
aI1
aa(lp202
I4
aI6
aI5
aI4
aI7
aI9
aI8
aI8
aI4
aI2
aI3
aI0
aI0
aI1
aa(lp203
I4
aI6
aI5
aI4
aI7
aI9
aI8
aI4
aI2
aI0
aI3
aI0
aI1
aa(lp204
I2
aI1
aI4
aI3
aI2
aI5
aI7
aI6
aI0
aI2
aI1
aI0
aa(lp205
I0
aI4
aI6
aI5
aI4
aI7
aI9
aI8
aI4
aI4
aI2
aI3
aI1
aa(lp206
I3
aI5
aI4
aI3
aI6
aI8
aI7
aI3
aI2
aI0
aI1
aa(lp207
I4
aI6
aI5
aI4
aI7
aI9
aI8
aI4
aI2
aI3
aI9
aI0
aI1
aa(lp208
I3
aI5
aI4
aI3
aI6
aI8
aI7
aI3
aI2
aI0
aI1
aa(lp209
I4
aI6
aI5
aI4
aI7
aI9
aI8
aI4
aI2
aI3
aI0
aI1
aa(lp210
I6
aI5
aI4
aI7
aI9
aI8
aI4
aI2
aI3
aI0
aI1
aa(lp211
I4
aI6
aI5
aI7
aI9
aI8
aI4
aI2
aI3
aI2
aI0
aI1
aa(lp212
I7
aI4
aI6
aI5
aI4
aI7
aI9
aI8
aI8
aI4
aI2
aI3
aI0
aI1
aa(lp213
I3
aI5
aI4
aI3
aI6
aI8
aI7
aI2
aI0
aI1
aa(lp214
I4
aI6
aI5
aI4
aI7
aI9
aI8
aI4
aI2
aI3
aI0
aI1
aa(lp215
I4
aI6
aI5
aI4
aI7
aI9
aI8
aI4
aI2
aI3
aI0
aI1
aa(lp216
I4
aI6
aI5
aI4
aI7
aI9
aI8
aI4
aI3
aI2
aI2
aI3
aI0
aI1
aa(lp217
I4
aI6
aI5
aI4
aI7
aI9
aI8
aI4
aI2
aI3
aI0
aI9
aI1
aa(lp218
I4
aI6
aI5
aI4
aI7
aI9
aI8
aI4
aI2
aI3
aI0
aI1
aa(lp219
I6
aI5
aI4
aI7
aI9
aI8
aI4
aI2
aI3
aI0
aI1
aa(lp220
I4
aI6
aI5
aI7
aI9
aI8
aI4
aI2
aI3
aI0
aI1
aa(lp221
I3
aI5
aI4
aI3
aI3
aI8
aI7
aI3
aI1
aI2
aI0
aI6
aa(lp222
I4
aI6
aI5
aI1
aI4
aI7
aI9
aI2
aI8
aI4
aI2
aI3
aI0
aI1
aa(lp223
I3
aI5
aI4
aI3
aI8
aI7
aI3
aI1
aI2
aI0
aI6
aa(lp224
I4
aI6
aI5
aI7
aI9
aI4
aI8
aI4
aI2
aI2
aI3
aI0
aI1
aa(lp225
I4
aI6
aI5
aI4
aI7
aI9
aI8
aI4
aI2
aI3
aI0
aI1
aa(lp226
I4
aI6
aI5
aI4
aI7
aI2
aI9
aI8
aI4
aI1
aI3
aI9
aI8
aI0
aa(lp227
I4
aI6
aI9
aI8
aI5
aI7
aI9
aI3
aI4
aI2
aI8
aI0
aI1
aa(lp228
I3
aI5
aI4
aI3
aI6
aI8
aI3
aI2
aI7
aI0
aI1
aa(lp229
I3
aI5
aI4
aI3
aI6
aI7
aI4
aI3
aI1
aI2
aI8
aI0
aa(lp230
I6
aI5
aI4
aI7
aI9
aI8
aI4
aI2
aI3
aI0
aI1
aa(lp231
I3
aI5
aI4
aI3
aI6
aI2
aI8
aI3
aI1
aI7
aI8
aI0
aa(lp232
I3
aI5
aI4
aI3
aI6
aI8
aI7
aI3
aI2
aI0
aI1
aa(lp233
I4
aI6
aI5
aI4
aI7
aI9
aI8
aI4
aI2
aI3
aI0
aI1
aa(lp234
I4
aI6
aI5
aI4
aI7
aI9
aI8
aI2
aI3
aI0
aI1
aa(lp235
I4
aI6
aI5
aI4
aI7
aI9
aI8
aI4
aI3
aI2
aI3
aI0
aI1
aa(lp236
I4
aI6
aI5
aI4
aI7
aI9
aI4
aI9
aI8
aI2
aI3
aI0
aI1
aa(lp237
I3
aI5
aI4
aI3
aI6
aI8
aI7
aI3
aI1
aI2
aI0
aI2
aa(lp238
I4
aI6
aI5
aI4
aI7
aI9
aI8
aI4
aI2
aI3
aI0
aI1
aa(lp239
I3
aI5
aI4
aI3
aI6
aI8
aI7
aI3
aI1
aI1
aI2
aI0
aa(lp240
I4
aI6
aI5
aI4
aI7
aI9
aI8
aI4
aI2
aI3
aI0
aI1
aa(lp241
I4
aI2
aI6
aI7
aI5
aI4
aI1
aI9
aI8
aI4
aI2
aI3
aI0
aI7
aa(lp242
I4
aI6
aI5
aI7
aI9
aI8
aI4
aI2
aI3
aI0
aI1
aa(lp243
I4
aI6
aI1
aI5
aI4
aI7
aI9
aI8
aI4
aI2
aI3
aI0
aI7
aI1
aa(lp244
I3
aI5
aI4
aI3
aI6
aI8
aI3
aI2
aI7
aI0
aI1
aa(lp245
I3
aI4
aI3
aI5
aI2
aI3
aI1
aI6
aI7
aI0
aa(lp246
I4
aI6
aI5
aI4
aI7
aI9
aI8
aI4
aI0
aI2
aI3
aI0
aI1
aa(lp247
I4
aI6
aI5
aI4
aI8
aI7
aI9
aI3
aI4
aI2
aI8
aI0
aI1
aa(lp248
I4
aI6
aI5
aI4
aI7
aI9
aI8
aI9
aI4
aI2
aI3
aI0
aI1
aa(lp249
I4
aI6
aI5
aI4
aI7
aI9
aI8
aI2
aI5
aI3
aI0
aI1
aa(lp250
I4
aI6
aI5
aI4
aI7
aI9
aI8
aI4
aI2
aI3
aI0
aI1
aa(lp251
I4
aI5
aI5
aI4
aI6
aI8
aI7
aI4
aI2
aI3
aI0
aI1
aa(lp252
I4
aI6
aI5
aI4
aI7
aI9
aI8
aI4
aI2
aI3
aI0
aI1
aa(lp253
I4
aI6
aI5
aI4
aI8
aI7
aI9
aI8
aI5
aI4
aI2
aI3
aI0
aI1
aa(lp254
I4
aI6
aI5
aI4
aI7
aI9
aI8
aI4
aI2
aI3
aI0
aI1
aa(lp255
I3
aI4
aI3
aI6
aI8
aI7
aI3
aI1
aI2
aI5
aI0
aa(lp256
I2
aI4
aI3
aI2
aI5
aI6
aI2
aI1
aI7
aI0
aa(lp257
I3
aI5
aI4
aI3
aI6
aI7
aI3
aI1
aI2
aI8
aI0
aa(lp258
I4
aI6
aI5
aI4
aI7
aI9
aI8
aI4
aI2
aI3
aI0
aI1
aa(lp259
I4
aI6
aI5
aI4
aI7
aI9
aI8
aI4
aI2
aI3
aI0
aI1
aa(lp260
I3
aI4
aI3
aI6
aI8
aI7
aI3
aI1
aI2
aI5
aI0
aa(lp261
I4
aI5
aI4
aI6
aI8
aI7
aI4
aI2
aI3
aI0
aI1
aa(lp262
I4
aI6
aI5
aI4
aI7
aI9
aI8
aI4
aI2
aI3
aI0
aI1
aa(lp263
I5
aI4
aI3
aI6
aI7
aI3
aI1
aI2
aI8
aI0
aa(lp264
I3
aI5
aI4
aI3
aI6
aI7
aI3
aI1
aI2
aI8
aI0
aa(lp265
I4
aI6
aI5
aI4
aI7
aI9
aI8
aI4
aI2
aI3
aI0
aI1
aa(lp266
I4
aI6
aI5
aI4
aI7
aI9
aI8
aI4
aI2
aI3
aI0
aI1
aa(lp267
I4
aI6
aI5
aI4
aI7
aI9
aI8
aI4
aI4
aI2
aI3
aI0
aI1
aa(lp268
I4
aI5
aI4
aI6
aI8
aI7
aI7
aI4
aI2
aI3
aI0
aI1
aa(lp269
I4
aI6
aI5
aI4
aI7
aI9
aI8
aI4
aI2
aI3
aI0
aI8
aI3
aI1
aa(lp270
I4
aI6
aI5
aI4
aI7
aI9
aI8
aI4
aI2
aI3
aI0
aI1
aa(lp271
I4
aI6
aI5
aI8
aI4
aI7
aI9
aI3
aI4
aI2
aI8
aI0
aI1
aa(lp272
I8
aI4
aI6
aI5
aI4
aI7
aI9
aI8
aI4
aI2
aI3
aI0
aI1
aa(lp273
I3
aI5
aI4
aI6
aI5
aI7
aI3
aI1
aI7
aI2
aI8
aI0
aa(lp274
I4
aI6
aI5
aI4
aI7
aI9
aI8
aI4
aI2
aI3
aI0
aI1
aa(lp275
I3
aI5
aI4
aI3
aI6
aI8
aI7
aI3
aI2
aI0
aI1
aa(lp276
I4
aI6
aI5
aI4
aI7
aI0
aI9
aI8
aI2
aI3
aI0
aI1
aa(lp277
I4
aI6
aI5
aI4
aI7
aI9
aI9
aI8
aI4
aI2
aI3
aI0
aI1
aa(lp278
I4
aI6
aI9
aI5
aI4
aI7
aI9
aI8
aI4
aI2
aI3
aI0
aI1
aa(lp279
I4
aI5
aI4
aI6
aI8
aI7
aI4
aI2
aI3
aI0
aI1
aa(lp280
I4
aI6
aI5
aI4
aI7
aI8
aI9
aI8
aI4
aI2
aI3
aI0
aI1
aa(lp281
I3
aI4
aI3
aI6
aI8
aI7
aI3
aI1
aI2
aI5
aI0
aa(lp282
I4
aI6
aI5
aI4
aI7
aI9
aI8
aI4
aI2
aI3
aI0
aI1
aa(lp283
I4
aI5
aI2
aI4
aI6
aI8
aI7
aI4
aI2
aI3
aI0
aI1
aa(lp284
I4
aI5
aI4
aI6
aI8
aI7
aI4
aI2
aI3
aI0
aI1
aa(lp285
I6
aI5
aI4
aI7
aI9
aI8
aI4
aI2
aI3
aI0
aI1
aa(lp286
I4
aI6
aI5
aI4
aI7
aI9
aI8
aI4
aI9
aI2
aI3
aI0
aI1
aa(lp287
I4
aI6
aI5
aI4
aI7
aI9
aI8
aI4
aI8
aI2
aI3
aI0
aI1
aa(lp288
I3
aI5
aI4
aI3
aI6
aI8
aI3
aI2
aI7
aI0
aI1
aa(lp289
I4
aI8
aI6
aI5
aI4
aI7
aI9
aI3
aI4
aI7
aI2
aI8
aI0
aI1
aa(lp290
I4
aI6
aI5
aI4
aI7
aI8
aI9
aI3
aI4
aI2
aI8
aI0
aI1
aa(lp291
I3
aI5
aI4
aI3
aI6
aI8
aI7
aI3
aI1
aI2
aI0
aa(lp292
I3
aI4
aI3
aI5
aI6
aI3
aI7
aI1
aI2
aI7
aI0
aa(lp293
I3
aI5
aI4
aI3
aI8
aI7
aI3
aI1
aI2
aI0
aI6
aa(lp294
I2
aI4
aI3
aI2
aI7
aI6
aI2
aI1
aI0
aI5
aa(lp295
I6
aI5
aI4
aI7
aI9
aI8
aI4
aI2
aI3
aI0
aI1
aa(lp296
I3
aI5
aI4
aI3
aI8
aI7
aI3
aI1
aI2
aI0
aI6
aa(lp297
I6
aI5
aI4
aI7
aI2
aI9
aI8
aI4
aI2
aI3
aI0
aI1
aa(lp298
I3
aI5
aI4
aI3
aI6
aI8
aI3
aI2
aI7
aI0
aI1
aa(lp299
I3
aI5
aI4
aI3
aI6
aI8
aI7
aI3
aI2
aI0
aI1
aa(lp300
I6
aI5
aI4
aI7
aI9
aI8
aI4
aI2
aI3
aI0
aI1
aa(lp301
I2
aI2
aI1
aI0
aI3
aa(lp302
I2
aI1
aI0
aI3
aa(lp303
I2
aI1
aI0
aI3
aa(lp304
I2
aI1
aI0
aI3
aa(lp305
I1
aI0
aI2
aa(lp306
I2
aI1
aI0
aI3
aa(lp307
I2
aI1
aI0
aI3
aa(lp308
I3
aI1
aI0
aI4
aI2
aI4
aa(lp309
I3
aI1
aI2
aI0
aI4
aa(lp310
I2
aI1
aI0
aI3
aa(lp311
I1
aI3
aI2
aI0
aI4
aa(lp312
I3
aI2
aI0
aI1
aI4
aa(lp313
I1
aI0
aI2
aa(lp314
I0
aI3
aI2
aI1
aI4
aa(lp315
I0
aI1
aa(lp316
I2
aI2
aI1
aI0
aI3
aa(lp317
I2
aI1
aI0
aI3
aa(lp318
I2
aI1
aI0
aI3
aa(lp319
I2
aI1
aI0
aI0
aI3
aa(lp320
I5
aI1
aI0
aI4
aI2
aI6
aI3
aa(lp321
I3
aI0
aI2
aI1
aI4
aa(lp322
I1
aI0
aI2
aa(lp323
I2
aI0
aI1
aI0
aI3
aa(lp324
I2
aI1
aI0
aa(lp325
I2
aI1
aI0
aI3
aa(lp326
I1
aI0
aI2
aa(lp327
I1
aI0
aI2
aa(lp328
I3
aI2
aI1
aI0
aI4
aa(lp329
I1
aI3
aI2
aI0
aI4
aa(lp330
I2
aI1
aI0
aI0
aI3
aa(lp331
I1
aI0
aI2
aa(lp332
I2
aI1
aI2
aI0
aI3
aa(lp333
I4
aI3
aI2
aI0
aI1
aa(lp334
I2
aI1
aI0
aI3
aa(lp335
I3
aI1
aI2
aI0
aI4
aa(lp336
I2
aI1
aI0
aI3
aa(lp337
I2
aI1
aI0
aI3
aa(lp338
I1
aI0
aI2
aa(lp339
I2
aI1
aI3
aI0
aI3
aa(lp340
I2
aI1
aI0
aa(lp341
I1
aI0
aI2
aa(lp342
I0
aI1
aI1
aa(lp343
I0
aI3
aI2
aI1
aI4
aa(lp344
I1
aI0
aI2
aa(lp345
I3
aI4
aI1
aI2
aI0
aI4
aa(lp346
I2
aI1
aI0
aI3
aa(lp347
I1
aI0
aI2
aa(lp348
I0
aI1
aa(lp349
I2
aI1
aI1
aI0
aI3
aa(lp350
I2
aI1
aI0
aI3
aa(lp351
I3
aI2
aI0
aI1
aI4
aa(lp352
I2
aI1
aI0
aa(lp353
I1
aI2
aI0
aI3
aa(lp354
I3
aI2
aI0
aI1
aI4
aa(lp355
I0
aI1
aa(lp356
I2
aI1
aI0
aa(lp357
I1
aI0
aI2
aI2
aa(lp358
I2
aI1
aI0
aI3
aa(lp359
I2
aI0
aI1
aI0
aI3
aa(lp360
I2
aI1
aI1
aI0
aI3
aa(lp361
I1
aI0
aI2
aa(lp362
I2
aI2
aI1
aI0
aI3
aa(lp363
I2
aI1
aI0
aI3
aa(lp364
I0
aI1
aa(lp365
I2
aI1
aI0
aI3
aa(lp366
I0
aI1
aI2
aa(lp367
I2
aI1
aI0
aI3
aa(lp368
I2
aI3
aI0
aI1
aI4
aa(lp369
I2
aI0
aI1
aI3
aa(lp370
I2
aI2
aI3
aI0
aI1
aa(lp371
I2
aI1
aI0
aa(lp372
I2
aI1
aI2
aI0
aI3
aa(lp373
I1
aI0
aa(lp374
I2
aI0
aI1
aI3
aa(lp375
I2
aI0
aI1
aI3
aa(lp376
I3
aI1
aI4
aI2
aI0
aa(lp377
I3
aI1
aI2
aI0
aI4
aa(lp378
I1
aI0
aa(lp379
I2
aI1
aI0
aI3
aa(lp380
I3
aI2
aI0
aI1
aI4
aa(lp381
I2
aI0
aI1
aI3
aa(lp382
I2
aI1
aI0
aI3
aa(lp383
I2
aI1
aI0
aa(lp384
I1
aI0
aa(lp385
I3
aI0
aI2
aI1
aa(lp386
I2
aI1
aI0
aI3
aa(lp387
I1
aI0
aI2
aa(lp388
I1
aI0
aI2
aa(lp389
I1
aI0
aI2
aa(lp390
I1
aI0
aI2
aa(lp391
I2
aI2
aI1
aI0
aI3
aa(lp392
I2
aI1
aI0
aa(lp393
I3
aI2
aI1
aI0
aa(lp394
I1
aI0
aI2
aa(lp395
I1
aI0
aI1
aI2
aa(lp396
I2
aI1
aI0
aI3
aa(lp397
I0
aI1
aa(lp398
I2
aI1
aI0
aI3
aa(lp399
I1
aI0
aI2
aa(lp400
I1
aI2
aI1
aI0
aa(lp401
I3
aI0
aI2
aI1
aI4
aa(lp402
I1
aI0
aI2
aa(lp403
I2
aI1
aI1
aI0
aI3
aa(lp404
I0
aI3
aI2
aI1
aI4
aa(lp405
I1
aI0
aI2
aa(lp406
I2
aI1
aI0
aI3
aa(lp407
I3
aI2
aI1
aI0
aI4
aa(lp408
I2
aI1
aI0
aI3
aI3
aa(lp409
I2
aI1
aI0
aI3
aa(lp410
I2
aI1
aI0
aI3
aa(lp411
I1
aI0
aI2
aa(lp412
I1
aI0
aI2
aa(lp413
I1
aI0
aI2
aa(lp414
I1
aI0
aI2
aa(lp415
I2
aI1
aI0
aI3
aa(lp416
I1
aI0
aI4
aI3
aI2
aI5
aa(lp417
I2
aI0
aI3
aI1
aa(lp418
I2
aI1
aI0
aI3
aa(lp419
I3
aI2
aI1
aI0
aI3
aa(lp420
I3
aI2
aI0
aI1
aa(lp421
I2
aI1
aI0
aI1
aI3
aa(lp422
I3
aI2
aI1
aI0
aI3
aa(lp423
I2
aI1
aI0
aI3
aa(lp424
I2
aI1
aI0
aa(lp425
I0
aI3
aI2
aI1
aI4
aa(lp426
I3
aI0
aI2
aI1
aI4
aa(lp427
I2
aI1
aI0
aa(lp428
I0
aa(lp429
I4
aI3
aI2
aI0
aI1
aa(lp430
I2
aI1
aI0
aa(lp431
I3
aI2
aI0
aI1
aI4
aa(lp432
I1
aI0
aI2
aa(lp433
I1
aI0
aI2
aa(lp434
I2
aI1
aI0
aI3
aa(lp435
I0
aI2
aI4
aI3
aI1
aI5
aa(lp436
I0
aI1
aa(lp437
I2
aI3
aI1
aI0
aa(lp438
I0
aI3
aI2
aI1
aI4
aa(lp439
I2
aI1
aI0
aI3
aa(lp440
I1
aI0
aI2
aa(lp441
I2
aI0
aI1
aI3
aa(lp442
I3
aI2
aI0
aI3
aI1
aI4
aa(lp443
I1
aI0
aa(lp444
I1
aI0
aI2
aa(lp445
I1
aI1
aI0
aa(lp446
I1
aI0
aI2
aa(lp447
I2
aI1
aI0
aa(lp448
I1
aI3
aI2
aI0
aI4
aa(lp449
I2
aI1
aI0
aI3
aa(lp450
I3
aI2
aI1
aI0
aI4
aa(lp451
I0
aI1
aa(lp452
I1
aI2
aI1
aI0
aI3
aa(lp453
I2
aI1
aI0
aI3
aI3
aa(lp454
I1
aI0
aI2
aa(lp455
I1
aI0
aI2
aa(lp456
I0
aI2
aI1
aI0
aI3
aa(lp457
I1
aI4
aI0
aI3
aI2
aI5
aa(lp458
I3
aI2
aI1
aI0
aI4
aa(lp459
I2
aI0
aI1
aI3
aa(lp460
I1
aI0
aa(lp461
I3
aI4
aI2
aI1
aI0
aI4
aa(lp462
I1
aI0
aI2
aa(lp463
I2
aI1
aI0
aI3
aa(lp464
I2
aI1
aI0
aI0
aI3
aa(lp465
I2
aI1
aI0
aI3
aa(lp466
I1
aI2
aI3
aI0
aI3
aa(lp467
I1
aI0
aI2
aI2
aa(lp468
I0
aI1
aI0
aI2
aa(lp469
I1
aI0
aI2
aa(lp470
I2
aI1
aI0
aI3
aa(lp471
I2
aI1
aI0
aa(lp472
I0
aa(lp473
I2
aI1
aI2
aI0
aI3
aa(lp474
I0
aI3
aI2
aI1
aa(lp475
I2
aI1
aI0
aI3
aa(lp476
I1
aI0
aa(lp477
I1
aI0
aI2
aa(lp478
I1
aI2
aI0
aI2
aa(lp479
I2
aI1
aI2
aI0
aI3
aa(lp480
I2
aI0
aI1
aI3
aa(lp481
I2
aI1
aI0
aI3
aa(lp482
I2
aI1
aI0
aa(lp483
I2
aI1
aI0
aI3
aa(lp484
I1
aI0
aI2
aa(lp485
I1
aI0
aI2
aa(lp486
I2
aI1
aI1
aI0
aI3
aa(lp487
I2
aI3
aI0
aI1
aI4
aa(lp488
I1
aI0
aI2
aa(lp489
I2
aI1
aI1
aI0
aI3
aa(lp490
I3
aI2
aI1
aI0
aI4
aa(lp491
I1
aI0
aI2
aa(lp492
I1
aI0
aI2
aa(lp493
I2
aI1
aI3
aI0
aa(lp494
I0
aI1
aa(lp495
I0
aI3
aI2
aI1
aI4
aa(lp496
I2
aI3
aI0
aI1
aI4
aa(lp497
I1
aI0
aI2
aa(lp498
I4
aI3
aI2
aI0
aI1
aa(lp499
I1
aI0
aa(lp500
I2
aI1
aI0
aI3
aa(lp501
I1
aI0
aI0
aI2
aa(lp502
I1
aI0
aI2
aa(lp503
I3
aI0
aI2
aI1
aI4
aa(lp504
I1
aI0
aI2
aa(lp505
I2
aI1
aI0
aI3
aa(lp506
I3
aI2
aI1
aI0
aI3
aI4
aa(lp507
I2
aI2
aI2
aI1
aI0
aI3
aa(lp508
I1
aI0
aI2
aa(lp509
I2
aI3
aI1
aI0
aI3
aa(lp510
I1
aI0
aI2
aa(lp511
I1
aI0
aI2
aa(lp512
I2
aI1
aI3
aI0
aI3
aa(lp513
I2
aI1
aI0
aI3
aa(lp514
I3
aI2
aI1
aI0
aI4
aa(lp515
I2
aI2
aI1
aI0
aI3
aa(lp516
I2
aI1
aI0
aI3
aI3
aa(lp517
I3
aI4
aI2
aI0
aI1
aa(lp518
I1
aI0
aI2
aa(lp519
I2
aI1
aI0
aI3
aa(lp520
I2
aI1
aI0
aI3
aa(lp521
I2
aI1
aI0
aa(lp522
I1
aI0
aI2
aa(lp523
I3
aI1
aI0
aI2
aI4
aa(lp524
I2
aI1
aI0
aI0
aI3
aa(lp525
I1
aI0
aI2
aa(lp526
I2
aI1
aI0
aI3
aa(lp527
I0
aI1
aa(lp528
I3
aI2
aI0
aI1
aa(lp529
I3
aI0
aI2
aI1
aI4
aa(lp530
I1
aI0
aI2
aa(lp531
I2
aI1
aI0
aI3
aa(lp532
I2
aI3
aI0
aI1
aa(lp533
I3
aI2
aI1
aI0
aI4
aa(lp534
I2
aI0
aI1
aI0
aI3
aa(lp535
I1
aI0
aI2
aa(lp536
I2
aI1
aI0
aI1
aI3
aa(lp537
I1
aI0
aI2
aa(lp538
I0
aI3
aI2
aI1
aI4
aa(lp539
I2
aI2
aI0
aI1
aa(lp540
I2
aI1
aI0
aI3
aa(lp541
I2
aI1
aI3
aI0
aa(lp542
I3
aI2
aI3
aI1
aI0
aI4
aa(lp543
I1
aI2
aI0
aI3
aa(lp544
I1
aI0
aI2
aa(lp545
I2
aI1
aI0
aI1
aI3
aa(lp546
I2
aI1
aI0
aI3
aa(lp547
I2
aI0
aI1
aa(lp548
I2
aI1
aI0
aI3
aa(lp549
I1
aI0
aI2
aa(lp550
I2
aI1
aI0
aI3
aa(lp551
I1
aI0
aI2
aa(lp552
I2
aI1
aI1
aI0
aI3
aa(lp553
I2
aI1
aI0
aI3
aa(lp554
I2
aI1
aI0
aI3
aa(lp555
I3
aI2
aI0
aI1
aI3
aa(lp556
I0
aI1
aa(lp557
I0
aI1
aa(lp558
I2
aI1
aI0
aI3
aa(lp559
I2
aI1
aI0
aI3
aa(lp560
I3
aI2
aI0
aI1
aI4
aa(lp561
I0
aI3
aI2
aI1
aI3
aI4
aa(lp562
I1
aI0
aI2
aa(lp563
I3
aI2
aI0
aI1
aa(lp564
I1
aI0
aI2
aa(lp565
I2
aI3
aI1
aI0
aI3
aa(lp566
I3
aI2
aI0
aI1
aI4
aa(lp567
I1
aI2
aI1
aI0
aI3
aa(lp568
I1
aI0
aI2
aa(lp569
I0
aI1
aa(lp570
I1
aI0
aI2
aa(lp571
I1
aI0
aI2
aa(lp572
I2
aI1
aI0
aI3
aa(lp573
I2
aI2
aI1
aI0
aI3
aa(lp574
I2
aI3
aI2
aI0
aI1
aI4
aa(lp575
I1
aI0
aI0
aI2
aa(lp576
I2
aI3
aI0
aI1
aa(lp577
I2
aI1
aI0
aI3
aa(lp578
I2
aI0
aI1
aI0
aI3
aa(lp579
I1
aI0
aI2
aa(lp580
I2
aI0
aI1
aI3
aa(lp581
I2
aI1
aI1
aI0
aI3
aa(lp582
I1
aI0
aI2
aa(lp583
I1
aI0
aI2
aa(lp584
I1
aI0
aI2
aa(lp585
I1
aI0
aI2
aa(lp586
I2
aI0
aI1
aI3
aa(lp587
I3
aI2
aI0
aI1
aa(lp588
I2
aI1
aI0
aa(lp589
I2
aI1
aI0
aI3
aa(lp590
I2
aI1
aI0
aI3
aa(lp591
I1
aI0
aI2
aa(lp592
I2
aI1
aI0
aI3
aa(lp593
I1
aI2
aI1
aI0
aI3
aa(lp594
I2
aI1
aI0
aI1
aI3
aa(lp595
I2
aI3
aI0
aI1
aI4
aa(lp596
I3
aI2
aI0
aI1
aI4
aa(lp597
I2
aI3
aI0
aI1
aa(lp598
I3
aI2
aI1
aI0
aa(lp599
I2
aI1
aI2
aI0
aI3
aa(lp600
I2
aI0
aI1
aI0
aI3
aa(lp601
I1
aI0
aa(lp602
I1
aI0
aI0
aa(lp603
I1
aI2
aI0
aa(lp604
I0
aa(lp605
I0
aa(lp606
I0
aI0
aa(lp607
I0
aI1
aa(lp608
I0
aI2
aI1
aI0
aa(lp609
I0
aI1
aa(lp610
I1
aI0
aa(lp611
I1
aI0
aa(lp612
I1
aI0
aa(lp613
I2
aI0
aI1
aa(lp614
I1
aI0
aa(lp615
I0
aa(lp616
I0
aI1
aa(lp617
I0
aI0
aa(lp618
I0
aI1
aa(lp619
I2
aI1
aI0
aa(lp620
I0
aa(lp621
I1
aI0
aa(lp622
I1
aI0
aa(lp623
I0
aa(lp624
I1
aI0
aa(lp625
I0
aa(lp626
I1
aI0
aa(lp627
I0
aa(lp628
I1
aI0
aa(lp629
I1
aI1
aI0
aa(lp630
I0
aa(lp631
I1
aI0
aa(lp632
I1
aI2
aI0
aa(lp633
I2
aI3
aI1
aI1
aI0
aa(lp634
I1
aI2
aI0
aa(lp635
I0
aa(lp636
I0
aa(lp637
I2
aI1
aI0
aa(lp638
I3
aI1
aI2
aI2
aI0
aa(lp639
I1
aI0
aa(lp640
I1
aI0
aa(lp641
I2
aI1
aI0
aa(lp642
I1
aI1
aI0
aa(lp643
I0
aI2
aI1
aa(lp644
I0
aa(lp645
I1
aI0
aa(lp646
I0
aa(lp647
I0
aa(lp648
I0
aa(lp649
I1
aI2
aI1
aI0
aa(lp650
I1
aI0
aa(lp651
I0
aa(lp652
I2
aI1
aI0
aa(lp653
I0
aa(lp654
I2
aI1
aI0
aa(lp655
I0
aa(lp656
I0
aa(lp657
I1
aI0
aa(lp658
I0
aI1
aa(lp659
I0
aa(lp660
I0
aa(lp661
I0
aa(lp662
I0
aa(lp663
I1
aI0
aa(lp664
I1
aI0
aa(lp665
I0
aa(lp666
I0
aa(lp667
I0
aa(lp668
I1
aI0
aa(lp669
I1
aI2
aI0
aa(lp670
I1
aI0
aa(lp671
I1
aI2
aI0
aa(lp672
I0
aI2
aI1
aa(lp673
I1
aI1
aI0
aa(lp674
I1
aI0
aa(lp675
I1
aI0
aa(lp676
I1
aI0
aa(lp677
I1
aI2
aI0
aa(lp678
I1
aI0
aI0
aa(lp679
I0
aI1
aa(lp680
I0
aI1
aI0
aa(lp681
I1
aI0
aa(lp682
I1
aI0
aa(lp683
I0
aa(lp684
I0
aa(lp685
I0
aI2
aI3
aI1
aa(lp686
I0
aa(lp687
I1
aI2
aI0
aa(lp688
I1
aI0
aa(lp689
I0
aa(lp690
I1
aI0
aa(lp691
I1
aI0
aa(lp692
I1
aI0
aa(lp693
I0
aa(lp694
I0
aa(lp695
I0
aa(lp696
I1
aI0
aa(lp697
I1
aI2
aI0
aa(lp698
I0
aa(lp699
I0
aa(lp700
I1
aI0
aa(lp701
I2
aI1
aI0
aa(lp702
I2
aI1
aI0
aa(lp703
I0
aa(lp704
I1
aI0
aa(lp705
I0
aI1
aa(lp706
I0
aa(lp707
I0
aa(lp708
I0
aI2
aI1
aa(lp709
I1
aI2
aI0
aa(lp710
I1
aI0
aa(lp711
I1
aI0
aa(lp712
I0
aa(lp713
I1
aI0
aa(lp714
I1
aI0
aa(lp715
I0
aa(lp716
I2
aI1
aI0
aa(lp717
I1
aI2
aI0
aa(lp718
I1
aI2
aI0
aa(lp719
I0
aa(lp720
I0
aa(lp721
I0
aa(lp722
I0
aa(lp723
I1
aI0
aa(lp724
I0
aa(lp725
I0
aa(lp726
I1
aI0
aa(lp727
I0
aa(lp728
I0
aa(lp729
I1
aI0
aa(lp730
I0
aa(lp731
I0
aa(lp732
I1
aI0
aa(lp733
I0
aa(lp734
I0
aa(lp735
I0
aa(lp736
I0
aI2
aI1
aa(lp737
I1
aI0
aa(lp738
I2
aI1
aI0
aa(lp739
I2
aI1
aI0
aa(lp740
I1
aI0
aa(lp741
I1
aI2
aI3
aI0
aa(lp742
I0
aa(lp743
I1
aI2
aI0
aa(lp744
I0
aa(lp745
I1
aI0
aa(lp746
I1
aI2
aI0
aa(lp747
I0
aa(lp748
I1
aI2
aI0
aa(lp749
I1
aI0
aa(lp750
I0
aa(lp751
I1
aI0
aa(lp752
I1
aI0
aa(lp753
I0
aa(lp754
I1
aI0
aa(lp755
I1
aI1
aI0
aa(lp756
I1
aI0
aa(lp757
I1
aI0
aa(lp758
I0
aa(lp759
I0
aa(lp760
I0
aI0
aa(lp761
I0
aa(lp762
I0
aI2
aI1
aI1
aa(lp763
I0
aI2
aI1
aa(lp764
I0
aa(lp765
I1
aI2
aI0
aa(lp766
I1
aI0
aa(lp767
I0
aa(lp768
I1
aI2
aI0
aa(lp769
I1
aI2
aI0
aa(lp770
I0
aa(lp771
I2
aI1
aI0
aa(lp772
I0
aa(lp773
I0
aI2
aI1
aa(lp774
I0
aa(lp775
I1
aI2
aI0
aa(lp776
I2
aI1
aI3
aI0
aa(lp777
I0
aI1
aa(lp778
I2
aI1
aI0
aa(lp779
I2
aI1
aI0
aa(lp780
I0
aI1
aa(lp781
I2
aI1
aI0
aa(lp782
I0
aa(lp783
I2
aI1
aI0
aa(lp784
I1
aI0
aa(lp785
I0
aa(lp786
I0
aa(lp787
I1
aI0
aa(lp788
I2
aI1
aI0
aa(lp789
I1
aI0
aa(lp790
I0
aI1
aa(lp791
I1
aI2
aI0
aI0
aa(lp792
I1
aI0
aa(lp793
I1
aI1
aI0
aa(lp794
I1
aI2
aI0
aa(lp795
I1
aI0
aa(lp796
I0
aI1
aa(lp797
I0
aa(lp798
I0
aa(lp799
I0
aa(lp800
I1
aI3
aI2
aI0
aa(lp801
I1
aI2
aI0
aa(lp802
I2
aI1
aI0
aI0
aa(lp803
I0
aa(lp804
I0
aa(lp805
I1
aI0
aa(lp806
I0
aa(lp807
I1
aI0
aa(lp808
I1
aI2
aI1
aI0
aa(lp809
I2
aI1
aI0
aa(lp810
I1
aI0
aa(lp811
I0
aa(lp812
I0
aa(lp813
I2
aI1
aI0
aa(lp814
I0
aa(lp815
I0
aa(lp816
I1
aI0
aa(lp817
I0
aa(lp818
I1
aI0
aa(lp819
I2
aI1
aI0
aa(lp820
I1
aI0
aa(lp821
I1
aI1
aI0
aa(lp822
I0
aI0
aa(lp823
I0
aa(lp824
I0
aa(lp825
I2
aI0
aI1
aa(lp826
I0
aI2
aI1
aa(lp827
I0
aI1
aI0
aa(lp828
I0
aa(lp829
I3
aI1
aI2
aI0
aa(lp830
I0
aa(lp831
I1
aI0
aa(lp832
I4
aI0
aI3
aI2
aI1
aa(lp833
I0
aa(lp834
I2
aI0
aI1
aa(lp835
I1
aI0
aa(lp836
I2
aI0
aI2
aI1
aa(lp837
I1
aI0
aa(lp838
I1
aI1
aI0
aa(lp839
I1
aI2
aI0
aa(lp840
I2
aI1
aI0
aa(lp841
I0
aa(lp842
I2
aI1
aI3
aI0
aa(lp843
I0
aI1
aI0
aa(lp844
I1
aI0
aa(lp845
I0
aa(lp846
I0
aa(lp847
I0
aa(lp848
I0
aa(lp849
I1
aI2
aI0
aa(lp850
I2
aI1
aI0
aa(lp851
I0
aa(lp852
I0
aa(lp853
I3
aI2
aI1
aI0
aa(lp854
I1
aI0
aa(lp855
I1
aI0
aI0
aa(lp856
I2
aI1
aI0
aa(lp857
I0
aa(lp858
I2
aI0
aI1
aa(lp859
I1
aI0
aa(lp860
I1
aI0
aa(lp861
I0
aa(lp862
I2
aI1
aI0
aa(lp863
I1
aI0
aa(lp864
I2
aI1
aI0
aa(lp865
I0
aI1
aI1
aI0
aa(lp866
I1
aI1
aI0
aa(lp867
I0
aa(lp868
I2
aI3
aI1
aI0
aa(lp869
I2
aI0
aI1
aa(lp870
I0
aa(lp871
I1
aI1
aI0
aa(lp872
I0
aa(lp873
I1
aI0
aa(lp874
I1
aI0
aa(lp875
I2
aI2
aI1
aI0
aa(lp876
I2
aI1
aI0
aa(lp877
I0
aa(lp878
I0
aI1
aI0
aa(lp879
I0
aa(lp880
I0
aa(lp881
I1
aI0
aI0
aa(lp882
I1
aI0
aa(lp883
I2
aI3
aI1
aI0
aa(lp884
I1
aI0
aI0
aa(lp885
I0
aa(lp886
I3
aI0
aI2
aI1
aa(lp887
I0
aa(lp888
I2
aI3
aI1
aI0
aa(lp889
I0
aa(lp890
I0
aa(lp891
I1
aI0
aa(lp892
I1
aI0
aa(lp893
I0
aa(lp894
I2
aI0
aI0
aI1
aa(lp895
I1
aI2
aI0
aa(lp896
I1
aI0
aa(lp897
I1
aI2
aI0
aa(lp898
I2
aI1
aI0
aa(lp899
I0
aI1
aa(lp900
I0
aa(lp901
I1
aI2
aI0
aa(lp902
I0
aI2
aI1
aa(lp903
I1
aI0
aa(lp904
I1
aI0
aa(lp905
I1
aI0
aa(lp906
I0
aa(lp907
I0
aa(lp908
I0
aa(lp909
I0
aa(lp910
I0
aI0
aI0
aa(lp911
I0
aa(lp912
I3
aI2
aI1
aI0
aa(lp913
I2
aI1
aI0
aa(lp914
I0
aa(lp915
I1
aI1
aI0
aa(lp916
I2
aI1
aI0
aI0
aa(lp917
I1
aI0
aI0
aa(lp918
I2
aI0
aI1
aI3
aI0
aa(lp919
I2
aI1
aI0
aa(lp920
I1
aI2
aI0
aa(lp921
I0
aI1
aa(lp922
I0
aa(lp923
I1
aI0
aa(lp924
I0
aa(lp925
I1
aI1
aI2
aI2
aI0
aa(lp926
I1
aI0
aa(lp927
I2
aI1
aI0
aa(lp928
I1
aI2
aI0
aa(lp929
I0
aa(lp930
I1
aI0
aa(lp931
I2
aI1
aI0
aa(lp932
I1
aI2
aI0
aa(lp933
I0
aa(lp934
I1
aI0
aa(lp935
I0
aa(lp936
I1
aI2
aI0
aa(lp937
I0
aa(lp938
I1
aI0
aa(lp939
I0
aa(lp940
I0
aa(lp941
I1
aI2
aI0
aa(lp942
I0
aa(lp943
I1
aI0
aa(lp944
I1
aI0
aa(lp945
I1
aI2
aI0
aa(lp946
I0
aa(lp947
I1
aI0
aa(lp948
I0
aa(lp949
I0
aa(lp950
I1
aI0
aa(lp951
I0
aa(lp952
I1
aI0
aa(lp953
I1
aI0
aa(lp954
I1
aI0
aa(lp955
I0
aa(lp956
I2
aI1
aI0
aa(lp957
I1
aI0
aa(lp958
I0
aI0
aa(lp959
I1
aI2
aI0
aa(lp960
I1
aI2
aI0
aa(lp961
I0
aa(lp962
I0
aI1
aI2
aI0
aa(lp963
I0
aa(lp964
I1
aI1
aI0
aa(lp965
I0
aI1
aI0
aa(lp966
I1
aI2
aI0
aa(lp967
I0
aa(lp968
I1
aI2
aI0
aa(lp969
I1
aI0
aa(lp970
I1
aI1
aI0
aa(lp971
I0
aI1
aa(lp972
I0
aa(lp973
I3
aI2
aI0
aI1
aa(lp974
I1
aI0
aI0
aa(lp975
I1
aI0
aa(lp976
I0
aa(lp977
I1
aI0
aa(lp978
I1
aI2
aI0
aa(lp979
I1
aI2
aI0
aa(lp980
I0
aa(lp981
I1
aI0
aa(lp982
I0
aa(lp983
I2
aI1
aI0
aa(lp984
I1
aI0
aa(lp985
I2
aI1
aI0
aa(lp986
I0
aa(lp987
I0
aa(lp988
I0
aa(lp989
I1
aI1
aI2
aI0
aa(lp990
I0
aI0
aa(lp991
I1
aI0
aa(lp992
I1
aI0
aa(lp993
I1
aI1
aI0
aa(lp994
I2
aI1
aI0
aa(lp995
I0
aa(lp996
I0
aa(lp997
I0
aa(lp998
I1
aI1
aI0
aa(lp999
I0
aa(lp1000
I0
aa.