(lp0
(lp1
I4
aI6
aI5
aI4
aI7
aI9
aI8
aI4
aI2
aI6
aI3
aI0
aI1
aa(lp2
I4
aI6
aI5
aI4
aI7
aI9
aI8
aI4
aI2
aI3
aI0
aI1
aa(lp3
I4
aI6
aI5
aI4
aI7
aI9
aI8
aI4
aI2
aI3
aI0
aI1
aa(lp4
I4
aI6
aI5
aI4
aI7
aI9
aI8
aI4
aI2
aI3
aI0
aI1
aa(lp5
I7
aI3
aI4
aI3
aI6
aI8
aI7
aI3
aI1
aI2
aI5
aI0
aa(lp6
I4
aI6
aI5
aI4
aI7
aI9
aI8
aI4
aI2
aI3
aI0
aI1
aa(lp7
I3
aI4
aI3
aI5
aI2
aI3
aI1
aI6
aI7
aI0
aa(lp8
I4
aI6
aI5
aI4
aI7
aI9
aI8
aI4
aI2
aI3
aI5
aI0
aI1
aa(lp9
I4
aI0
aI6
aI5
aI4
aI7
aI9
aI8
aI4
aI2
aI3
aI1
aa(lp10
I3
aI4
aI3
aI6
aI8
aI7
aI3
aI1
aI2
aI5
aI0
aa(lp11
I3
aI4
aI2
aI3
aI7
aI6
aI3
aI1
aI2
aI0
aI5
aa(lp12
I4
aI7
aI6
aI5
aI4
aI7
aI9
aI8
aI4
aI2
aI3
aI0
aI1
aa(lp13
I4
aI6
aI5
aI6
aI4
aI7
aI9
aI8
aI4
aI2
aI3
aI0
aI1
aa(lp14
I3
aI5
aI4
aI3
aI6
aI7
aI3
aI1
aI2
aI8
aI0
aa(lp15
I3
aI5
aI4
aI3
aI1
aI8
aI7
aI3
aI1
aI2
aI0
aI6
aa(lp16
I4
aI6
aI8
aI5
aI4
aI7
aI9
aI8
aI4
aI2
aI0
aI3
aI0
aI1
aa(lp17
I4
aI6
aI5
aI4
aI7
aI9
aI9
aI8
aI4
aI2
aI3
aI0
aI1
aa(lp18
I3
aI4
aI3
aI5
aI2
aI3
aI1
aI6
aI7
aI0
aa(lp19
I4
aI6
aI5
aI4
aI7
aI9
aI8
aI4
aI2
aI3
aI0
aI1
aa(lp20
I4
aI6
aI5
aI4
aI7
aI9
aI8
aI4
aI1
aI2
aI3
aI0
aI1
aa(lp21
I0
aI4
aI6
aI5
aI4
aI7
aI9
aI8
aI4
aI2
aI3
aI0
aI1
aa(lp22
I4
aI6
aI5
aI4
aI7
aI9
aI8
aI2
aI4
aI8
aI2
aI3
aI0
aI1
aa(lp23
I4
aI6
aI5
aI4
aI7
aI9
aI8
aI4
aI2
aI3
aI0
aI0
aI1
aa(lp24
I4
aI6
aI5
aI4
aI7
aI9
aI8
aI4
aI2
aI5
aI3
aI1
aI0
aI1
aa(lp25
I5
aI4
aI3
aI6
aI8
aI7
aI3
aI1
aI2
aI0
aa(lp26
I2
aI3
aI1
aI2
aI5
aI7
aI6
aI2
aI1
aI4
aI0
aa(lp27
I3
aI5
aI4
aI3
aI6
aI8
aI7
aI3
aI1
aI2
aI0
aa(lp28
I4
aI6
aI5
aI4
aI7
aI9
aI8
aI4
aI2
aI3
aI0
aI1
aa(lp29
I3
aI5
aI4
aI3
aI8
aI7
aI3
aI1
aI2
aI0
aI6
aa(lp30
I4
aI6
aI5
aI4
aI7
aI9
aI8
aI2
aI3
aI0
aI1
aa(lp31
I4
aI6
aI5
aI4
aI7
aI9
aI8
aI4
aI2
aI3
aI0
aI1
aa(lp32
I3
aI5
aI4
aI3
aI3
aI6
aI8
aI7
aI3
aI2
aI0
aI1
aa(lp33
I3
aI4
aI3
aI5
aI7
aI6
aI3
aI2
aI0
aI1
aa(lp34
I4
aI6
aI5
aI4
aI7
aI9
aI8
aI4
aI2
aI2
aI3
aI0
aI1
aa(lp35
I4
aI5
aI6
aI4
aI4
aI7
aI9
aI8
aI4
aI2
aI3
aI0
aI1
aa(lp36
I4
aI6
aI5
aI4
aI7
aI9
aI8
aI4
aI2
aI3
aI0
aI6
aI1
aa(lp37
I2
aI2
aI3
aI2
aI7
aI1
aI2
aI0
aI6
aI4
aI5
aa(lp38
I3
aI5
aI4
aI3
aI6
aI8
aI7
aI3
aI1
aI7
aI2
aI0
aI3
aa(lp39
I3
aI5
aI4
aI3
aI1
aI1
aI6
aI8
aI3
aI2
aI7
aI0
aI6
aa(lp40
I5
aI4
aI3
aI6
aI8
aI3
aI2
aI7
aI0
aI6
aI1
aa(lp41
I4
aI6
aI5
aI4
aI7
aI9
aI4
aI8
aI4
aI2
aI3
aI0
aI1
aa(lp42
I3
aI5
aI5
aI4
aI3
aI6
aI8
aI7
aI3
aI1
aI2
aI0
aa(lp43
I4
aI6
aI5
aI4
aI4
aI7
aI9
aI8
aI4
aI2
aI3
aI0
aI1
aa(lp44
I3
aI5
aI4
aI3
aI1
aI8
aI7
aI3
aI1
aI2
aI0
aI6
aa(lp45
I3
aI4
aI5
aI5
aI4
aI3
aI6
aI8
aI3
aI2
aI7
aI0
aI1
aa(lp46
I2
aI4
aI6
aI5
aI4
aI7
aI9
aI8
aI4
aI2
aI3
aI0
aI1
aa(lp47
I4
aI6
aI5
aI4
aI4
aI7
aI9
aI8
aI4
aI2
aI3
aI0
aI1
aa(lp48
I4
aI5
aI4
aI6
aI8
aI7
aI4
aI2
aI3
aI0
aI1
aa(lp49
I4
aI6
aI5
aI4
aI7
aI9
aI8
aI4
aI2
aI3
aI0
aI1
aa(lp50
I3
aI5
aI7
aI4
aI3
aI6
aI8
aI2
aI3
aI7
aI0
aI1
aa(lp51
I3
aI3
aI5
aI4
aI6
aI8
aI7
aI2
aI0
aI1
aa(lp52
I3
aI5
aI5
aI4
aI3
aI6
aI8
aI7
aI3
aI1
aI2
aI0
aa(lp53
I3
aI5
aI4
aI3
aI6
aI8
aI7
aI3
aI2
aI0
aI3
aI1
aa(lp54
I2
aI4
aI3
aI2
aI5
aI7
aI2
aI6
aI0
aI1
aa(lp55
I3
aI4
aI3
aI6
aI8
aI7
aI3
aI1
aI2
aI5
aI0
aa(lp56
I4
aI6
aI5
aI7
aI9
aI8
aI4
aI2
aI3
aI4
aI0
aI1
aa(lp57
I3
aI4
aI3
aI5
aI7
aI6
aI3
aI2
aI0
aI1
aa(lp58
I3
aI5
aI4
aI3
aI6
aI8
aI7
aI3
aI2
aI0
aI7
aI1
aa(lp59
I3
aI4
aI3
aI7
aI2
aI7
aI3
aI1
aI6
aI0
aI5
aa(lp60
I4
aI6
aI5
aI4
aI4
aI7
aI9
aI8
aI4
aI2
aI3
aI0
aI1
aa(lp61
I3
aI5
aI6
aI4
aI2
aI3
aI6
aI7
aI3
aI1
aI2
aI8
aI0
aa(lp62
I4
aI6
aI5
aI4
aI7
aI9
aI8
aI4
aI2
aI3
aI0
aI1
aa(lp63
I4
aI6
aI5
aI4
aI7
aI9
aI8
aI4
aI2
aI3
aI0
aI1
aa(lp64
I4
aI6
aI5
aI4
aI7
aI9
aI8
aI7
aI4
aI2
aI3
aI0
aI1
aa(lp65
I3
aI5
aI4
aI3
aI6
aI8
aI7
aI3
aI1
aI2
aI0
aa(lp66
I4
aI6
aI5
aI4
aI7
aI9
aI8
aI4
aI2
aI3
aI0
aI1
aa(lp67
I4
aI5
aI4
aI6
aI8
aI7
aI4
aI2
aI3
aI0
aI1
aa(lp68
I4
aI6
aI5
aI4
aI7
aI9
aI8
aI4
aI2
aI3
aI0
aI1
aa(lp69
I4
aI6
aI5
aI2
aI4
aI7
aI7
aI9
aI8
aI4
aI2
aI3
aI0
aI1
aa(lp70
I4
aI6
aI5
aI4
aI7
aI9
aI8
aI4
aI2
aI3
aI0
aI1
aa(lp71
I4
aI6
aI5
aI4
aI7
aI9
aI6
aI8
aI4
aI2
aI3
aI0
aI1
aa(lp72
I3
aI5
aI4
aI3
aI6
aI8
aI3
aI2
aI7
aI0
aI1
aa(lp73
I4
aI6
aI5
aI4
aI7
aI9
aI8
aI4
aI2
aI3
aI0
aI1
aa(lp74
I3
aI5
aI4
aI6
aI7
aI3
aI1
aI2
aI8
aI0
aa(lp75
I4
aI6
aI5
aI4
aI7
aI9
aI8
aI4
aI2
aI3
aI0
aI1
aI1
aa(lp76
I3
aI5
aI4
aI8
aI3
aI8
aI7
aI3
aI1
aI2
aI0
aI6
aa(lp77
I3
aI5
aI4
aI6
aI8
aI7
aI3
aI2
aI0
aI1
aa(lp78
I4
aI5
aI4
aI6
aI8
aI7
aI4
aI2
aI3
aI0
aI1
aa(lp79
I4
aI6
aI5
aI4
aI7
aI9
aI8
aI4
aI2
aI3
aI0
aI1
aa(lp80
I3
aI5
aI4
aI3
aI6
aI7
aI3
aI1
aI2
aI8
aI0
aa(lp81
I4
aI6
aI5
aI4
aI7
aI9
aI8
aI4
aI2
aI3
aI0
aI1
aa(lp82
I4
aI6
aI5
aI4
aI7
aI8
aI9
aI8
aI4
aI2
aI3
aI0
aI1
aa(lp83
I4
aI6
aI5
aI8
aI4
aI7
aI9
aI8
aI4
aI2
aI3
aI0
aI1
aa(lp84
I3
aI5
aI4
aI3
aI6
aI8
aI6
aI7
aI3
aI1
aI2
aI1
aI0
aa(lp85
I3
aI5
aI4
aI6
aI3
aI6
aI7
aI3
aI1
aI2
aI8
aI0
aa(lp86
I4
aI6
aI5
aI4
aI7
aI2
aI9
aI8
aI4
aI2
aI3
aI0
aI1
aa(lp87
I4
aI6
aI5
aI7
aI9
aI8
aI4
aI2
aI3
aI0
aI1
aa(lp88
I3
aI5
aI4
aI3
aI6
aI8
aI7
aI3
aI2
aI0
aI1
aa(lp89
I4
aI6
aI5
aI4
aI7
aI9
aI8
aI4
aI2
aI3
aI0
aI1
aa(lp90
I3
aI5
aI4
aI3
aI6
aI8
aI7
aI3
aI2
aI0
aI1
aa(lp91
I4
aI6
aI5
aI4
aI7
aI9
aI8
aI4
aI2
aI9
aI3
aI0
aI1
aa(lp92
I0
aI3
aI4
aI6
aI8
aI7
aI3
aI1
aI2
aI5
aI7
aI0
aa(lp93
I3
aI5
aI4
aI3
aI8
aI7
aI3
aI1
aI2
aI0
aI6
aa(lp94
I4
aI6
aI5
aI4
aI7
aI9
aI8
aI4
aI2
aI6
aI3
aI0
aI1
aa(lp95
I3
aI5
aI4
aI3
aI8
aI7
aI3
aI1
aI2
aI0
aI6
aa(lp96
I3
aI5
aI4
aI2
aI3
aI6
aI8
aI3
aI2
aI7
aI0
aI1
aa(lp97
I2
aI3
aI2
aI5
aI5
aI7
aI2
aI1
aI6
aI4
aI0
aa(lp98
I3
aI5
aI4
aI3
aI8
aI7
aI3
aI1
aI2
aI0
aI6
aa(lp99
I4
aI5
aI6
aI5
aI4
aI7
aI9
aI8
aI4
aI2
aI3
aI0
aI1
aa(lp100
I3
aI5
aI4
aI3
aI6
aI8
aI7
aI3
aI2
aI0
aI1
aa(lp101
I4
aI6
aI5
aI7
aI9
aI8
aI4
aI2
aI3
aI0
aI1
aa(lp102
I6
aI5
aI4
aI7
aI9
aI8
aI4
aI2
aI3
aI0
aI1
aa(lp103
I3
aI1
aI5
aI4
aI6
aI7
aI3
aI1
aI2
aI5
aI8
aI0
aa(lp104
I3
aI5
aI4
aI3
aI6
aI8
aI3
aI2
aI7
aI0
aI1
aa(lp105
I2
aI3
aI2
aI7
aI1
aI2
aI0
aI6
aI4
aI5
aa(lp106
I4
aI5
aI4
aI6
aI8
aI7
aI4
aI2
aI3
aI0
aI1
aa(lp107
I3
aI5
aI4
aI3
aI1
aI8
aI6
aI7
aI3
aI2
aI0
aI6
aa(lp108
I6
aI5
aI4
aI7
aI9
aI8
aI5
aI4
aI2
aI3
aI0
aI1
aa(lp109
I4
aI6
aI5
aI4
aI7
aI9
aI8
aI4
aI2
aI3
aI0
aI1
aa(lp110
I3
aI5
aI4
aI3
aI8
aI7
aI3
aI1
aI2
aI0
aI6
aa(lp111
I0
aI5
aI4
aI3
aI8
aI7
aI3
aI1
aI2
aI0
aI6
aa(lp112
I3
aI5
aI4
aI3
aI8
aI7
aI1
aI2
aI0
aI6
aa(lp113
I3
aI5
aI4
aI3
aI6
aI7
aI3
aI1
aI2
aI8
aI0
aa(lp114
I4
aI6
aI5
aI4
aI7
aI9
aI8
aI4
aI2
aI3
aI0
aI1
aI1
aa(lp115
I4
aI6
aI5
aI4
aI7
aI9
aI8
aI4
aI2
aI3
aI0
aI8
aI1
aa(lp116
I2
aI3
aI2
aI5
aI7
aI2
aI1
aI6
aI4
aI0
aa(lp117
I4
aI6
aI5
aI7
aI9
aI8
aI4
aI2
aI3
aI0
aI1
aa(lp118
I7
aI4
aI8
aI6
aI5
aI4
aI7
aI9
aI3
aI4
aI2
aI8
aI0
aI1
aa(lp119
I4
aI6
aI5
aI4
aI7
aI9
aI8
aI4
aI2
aI3
aI0
aI1
aa(lp120
I3
aI5
aI4
aI3
aI6
aI2
aI8
aI3
aI2
aI7
aI0
aI1
aa(lp121
I4
aI6
aI6
aI5
aI4
aI7
aI9
aI8
aI4
aI2
aI3
aI0
aI1
aa(lp122
I4
aI6
aI5
aI7
aI9
aI8
aI4
aI2
aI3
aI0
aI1
aa(lp123
I3
aI4
aI3
aI5
aI2
aI1
aI3
aI1
aI6
aI7
aI0
aa(lp124
I4
aI6
aI5
aI4
aI0
aI7
aI9
aI8
aI4
aI2
aI3
aI0
aI1
aa(lp125
I2
aI4
aI3
aI2
aI5
aI7
aI6
aI2
aI1
aI0
aa(lp126
I4
aI6
aI5
aI4
aI7
aI9
aI8
aI4
aI6
aI2
aI3
aI1
aI0
aI1
aa(lp127
I4
aI6
aI5
aI4
aI7
aI9
aI8
aI4
aI2
aI3
aI3
aI0
aI1
aa(lp128
I4
aI6
aI5
aI4
aI7
aI9
aI8
aI4
aI2
aI3
aI0
aI1
aa(lp129
I2
aI3
aI2
aI7
aI1
aI2
aI0
aI6
aI4
aI5
aa(lp130
I6
aI5
aI4
aI7
aI9
aI8
aI4
aI2
aI3
aI0
aI1
aa(lp131
I4
aI6
aI5
aI4
aI7
aI9
aI8
aI8
aI4
aI2
aI3
aI0
aI1
aa(lp132
I8
aI4
aI7
aI6
aI5
aI4
aI7
aI9
aI8
aI4
aI2
aI3
aI0
aI1
aa(lp133
I3
aI5
aI4
aI8
aI7
aI3
aI1
aI2
aI0
aI6
aa(lp134
I4
aI6
aI5
aI7
aI9
aI9
aI8
aI4
aI2
aI3
aI0
aI1
aa(lp135
I3
aI4
aI3
aI5
aI2
aI3
aI1
aI6
aI7
aI0
aa(lp136
I4
aI6
aI9
aI5
aI4
aI7
aI9
aI8
aI4
aI2
aI3
aI0
aI1
aa(lp137
I3
aI5
aI4
aI7
aI3
aI6
aI8
aI7
aI3
aI1
aI2
aI0
aa(lp138
I4
aI6
aI5
aI7
aI9
aI8
aI4
aI2
aI3
aI0
aI1
aa(lp139
I3
aI5
aI4
aI3
aI6
aI8
aI7
aI3
aI2
aI0
aI1
aa(lp140
I4
aI6
aI5
aI7
aI9
aI8
aI4
aI2
aI3
aI0
aI1
aa(lp141
I4
aI6
aI5
aI4
aI7
aI9
aI8
aI4
aI2
aI3
aI0
aI1
aa(lp142
I4
aI6
aI5
aI4
aI7
aI9
aI8
aI4
aI2
aI3
aI7
aI0
aI1
aa(lp143
I4
aI6
aI5
aI4
aI9
aI7
aI9
aI8
aI2
aI3
aI0
aI1
aa(lp144
I3
aI5
aI4
aI6
aI7
aI3
aI1
aI2
aI8
aI0
aa(lp145
I3
aI5
aI4
aI3
aI6
aI7
aI3
aI1
aI2
aI8
aI2
aI0
aa(lp146
I4
aI6
aI5
aI4
aI7
aI9
aI8
aI4
aI2
aI3
aI0
aI1
aa(lp147
I5
aI0
aI4
aI3
aI6
aI8
aI3
aI2
aI7
aI0
aI1
aa(lp148
I4
aI5
aI4
aI6
aI8
aI7
aI4
aI2
aI3
aI0
aI1
aa(lp149
I3
aI5
aI4
aI3
aI6
aI8
aI3
aI2
aI7
aI0
aI1
aa(lp150
I3
aI5
aI4
aI3
aI6
aI8
aI7
aI3
aI2
aI0
aI1
aa(lp151
I3
aI4
aI5
aI4
aI3
aI6
aI8
aI3
aI2
aI7
aI0
aI1
aa(lp152
I4
aI6
aI5
aI4
aI7
aI9
aI8
aI4
aI2
aI3
aI0
aI1
aa(lp153
I3
aI5
aI4
aI3
aI6
aI8
aI8
aI7
aI3
aI1
aI2
aI0
aa(lp154
I4
aI6
aI5
aI4
aI7
aI9
aI8
aI2
aI2
aI3
aI0
aI1
aa(lp155
I8
aI4
aI6
aI5
aI4
aI7
aI9
aI3
aI4
aI2
aI8
aI0
aI1
aa(lp156
I4
aI6
aI5
aI4
aI7
aI9
aI8
aI4
aI2
aI3
aI0
aI1
aa(lp157
I3
aI5
aI4
aI3
aI8
aI7
aI3
aI1
aI1
aI2
aI0
aI6
aa(lp158
I7
aI6
aI7
aI5
aI4
aI7
aI9
aI8
aI4
aI2
aI3
aI0
aI1
aa(lp159
I4
aI6
aI5
aI8
aI7
aI9
aI3
aI4
aI2
aI8
aI0
aI1
aa(lp160
I2
aI4
aI3
aI2
aI7
aI2
aI1
aI6
aI0
aI6
aI5
aa(lp161
I4
aI6
aI5
aI4
aI7
aI9
aI8
aI4
aI2
aI5
aI3
aI0
aI1
aa(lp162
I4
aI6
aI5
aI4
aI7
aI9
aI8
aI4
aI2
aI3
aI0
aI1
aa(lp163
I4
aI6
aI5
aI4
aI7
aI9
aI8
aI4
aI2
aI3
aI0
aI1
aa(lp164
I4
aI5
aI4
aI6
aI8
aI7
aI4
aI2
aI3
aI0
aI1
aa(lp165
I4
aI6
aI5
aI4
aI7
aI9
aI8
aI4
aI2
aI7
aI3
aI0
aI1
aa(lp166
I4
aI6
aI5
aI4
aI7
aI9
aI8
aI4
aI2
aI3
aI0
aI1
aa(lp167
I4
aI6
aI5
aI4
aI7
aI9
aI8
aI4
aI2
aI3
aI0
aI1
aa(lp168
I3
aI5
aI4
aI3
aI6
aI8
aI7
aI3
aI2
aI0
aI1
aa(lp169
I3
aI1
aI5
aI4
aI3
aI6
aI8
aI3
aI2
aI7
aI0
aI1
aa(lp170
I3
aI4
aI5
aI4
aI3
aI6
aI8
aI3
aI2
aI7
aI0
aI4
aI1
aa(lp171
I3
aI5
aI4
aI3
aI6
aI7
aI3
aI1
aI2
aI8
aI0
aa(lp172
I6
aI5
aI4
aI7
aI9
aI8
aI4
aI2
aI3
aI0
aI1
aa(lp173
I4
aI6
aI5
aI4
aI7
aI9
aI5
aI8
aI4
aI2
aI3
aI0
aI1
aa(lp174
I4
aI6
aI5
aI4
aI1
aI7
aI9
aI8
aI4
aI2
aI3
aI0
aI7
aa(lp175
I3
aI5
aI4
aI3
aI6
aI8
aI7
aI3
aI1
aI2
aI0
aa(lp176
I4
aI6
aI5
aI7
aI9
aI8
aI2
aI4
aI2
aI3
aI0
aI1
aa(lp177
I4
aI6
aI5
aI4
aI7
aI9
aI8
aI4
aI7
aI2
aI3
aI0
aI1
aa(lp178
I2
aI4
aI3
aI2
aI7
aI1
aI2
aI6
aI0
aI5
aa(lp179
I4
aI6
aI5
aI4
aI7
aI9
aI8
aI4
aI2
aI3
aI0
aI1
aa(lp180
I4
aI6
aI5
aI7
aI9
aI8
aI4
aI2
aI3
aI0
aI1
aa(lp181
I6
aI5
aI4
aI7
aI9
aI8
aI4
aI2
aI3
aI0
aI1
aa(lp182
I3
aI5
aI4
aI3
aI6
aI8
aI7
aI3
aI1
aI2
aI8
aI0
aa(lp183
I4
aI6
aI5
aI7
aI4
aI7
aI9
aI8
aI4
aI2
aI3
aI0
aI1
aa(lp184
I3
aI5
aI4
aI3
aI6
aI8
aI7
aI3
aI2
aI0
aI1
aa(lp185
I3
aI5
aI4
aI3
aI8
aI7
aI3
aI1
aI2
aI0
aI6
aa(lp186
I4
aI6
aI5
aI4
aI7
aI9
aI8
aI4
aI2
aI3
aI0
aI1
aa(lp187
I4
aI6
aI5
aI4
aI7
aI9
aI6
aI8
aI4
aI2
aI3
aI0
aI1
aa(lp188
I5
aI4
aI3
aI6
aI2
aI3
aI8
aI1
aI7
aI8
aI0
aa(lp189
I3
aI5
aI4
aI3
aI6
aI8
aI7
aI3
aI2
aI0
aI1
aa(lp190
I3
aI5
aI4
aI3
aI6
aI7
aI3
aI1
aI2
aI0
aa(lp191
I3
aI4
aI4
aI3
aI6
aI8
aI7
aI3
aI1
aI2
aI5
aI0
aa(lp192
I3
aI5
aI4
aI3
aI6
aI8
aI6
aI7
aI3
aI1
aI2
aI0
aa(lp193
I3
aI4
aI3
aI6
aI8
aI7
aI3
aI1
aI2
aI5
aI0
aa(lp194
I4
aI6
aI5
aI4
aI7
aI9
aI8
aI4
aI2
aI3
aI0
aI1
aa(lp195
I3
aI5
aI4
aI3
aI6
aI7
aI1
aI3
aI1
aI2
aI8
aI0
aa(lp196
I4
aI6
aI5
aI4
aI7
aI9
aI8
aI2
aI3
aI0
aI1
aa(lp197
I4
aI6
aI5
aI4
aI7
aI9
aI8
aI4
aI2
aI1
aI3
aI0
aI1
aa(lp198
I3
aI5
aI4
aI3
aI6
aI8
aI7
aI3
aI2
aI0
aI1
aa(lp199
I3
aI4
aI3
aI6
aI8
aI7
aI3
aI1
aI2
aI5
aI5
aI0
aa(lp200
I4
aI6
aI5
aI4
aI7
aI9
aI8
aI0
aI4
aI2
aI3
aI1
aa(lp201
I3
aI5
aI4
aI6
aI6
aI8
aI2
aI7
aI0
aI1
aa(lp202
I3
aI5
aI4
aI6
aI8
aI3
aI6
aI8
aI7
aI3
aI2
aI0
aI1
aa(lp203
I4
aI6
aI5
aI4
aI7
aI9
aI8
aI4
aI2
aI3
aI0
aI4
aI1
aa(lp204
I4
aI6
aI5
aI4
aI1
aI7
aI9
aI8
aI3
aI4
aI2
aI3
aI0
aI7
aa(lp205
I3
aI7
aI5
aI4
aI3
aI6
aI8
aI7
aI3
aI2
aI0
aI1
aa(lp206
I4
aI6
aI5
aI4
aI7
aI9
aI8
aI4
aI2
aI3
aI0
aI1
aa(lp207
I3
aI5
aI4
aI3
aI6
aI7
aI3
aI1
aI2
aI8
aI2
aI0
aa(lp208
I6
aI5
aI4
aI7
aI9
aI8
aI4
aI2
aI3
aI0
aI1
aa(lp209
I4
aI4
aI6
aI5
aI7
aI9
aI8
aI4
aI2
aI3
aI0
aI1
aa(lp210
I3
aI5
aI4
aI3
aI6
aI8
aI6
aI7
aI3
aI2
aI0
aI1
aa(lp211
I3
aI5
aI4
aI3
aI6
aI8
aI7
aI3
aI2
aI0
aI1
aa(lp212
I4
aI6
aI5
aI4
aI7
aI9
aI8
aI4
aI2
aI3
aI0
aI1
aa(lp213
I4
aI5
aI4
aI6
aI8
aI7
aI4
aI2
aI3
aI0
aI1
aa(lp214
I4
aI2
aI4
aI3
aI2
aI5
aI7
aI6
aI2
aI0
aI1
aa(lp215
I4
aI6
aI5
aI4
aI7
aI9
aI8
aI4
aI2
aI3
aI0
aI1
aa(lp216
I4
aI6
aI5
aI4
aI7
aI9
aI8
aI4
aI2
aI4
aI3
aI0
aI1
aa(lp217
I3
aI5
aI4
aI3
aI6
aI2
aI7
aI3
aI1
aI7
aI8
aI0
aa(lp218
I4
aI6
aI5
aI4
aI4
aI7
aI9
aI8
aI4
aI2
aI3
aI0
aI1
aa(lp219
I6
aI5
aI4
aI7
aI9
aI8
aI4
aI2
aI3
aI1
aI0
aI1
aa(lp220
I4
aI6
aI5
aI4
aI7
aI9
aI8
aI4
aI2
aI3
aI1
aI0
aI1
aa(lp221
I4
aI6
aI5
aI4
aI7
aI9
aI8
aI2
aI3
aI0
aI1
aa(lp222
I4
aI6
aI5
aI4
aI7
aI9
aI8
aI4
aI2
aI3
aI0
aI1
aa(lp223
I3
aI5
aI4
aI3
aI6
aI8
aI7
aI3
aI2
aI0
aI1
aa(lp224
I4
aI6
aI5
aI4
aI7
aI9
aI8
aI2
aI3
aI0
aI1
aa(lp225
I2
aI3
aI2
aI4
aI6
aI2
aI0
aI7
aI1
aI7
aI5
aa(lp226
I3
aI4
aI3
aI5
aI7
aI6
aI3
aI2
aI0
aI1
aa(lp227
I3
aI4
aI3
aI6
aI8
aI7
aI3
aI1
aI2
aI5
aI0
aa(lp228
I4
aI6
aI5
aI4
aI7
aI9
aI8
aI4
aI2
aI3
aI1
aI0
aI1
aa(lp229
I4
aI6
aI5
aI4
aI7
aI9
aI8
aI2
aI3
aI0
aI1
aa(lp230
I4
aI6
aI5
aI4
aI7
aI9
aI8
aI4
aI2
aI3
aI0
aI1
aa(lp231
I3
aI5
aI4
aI3
aI0
aI4
aI6
aI7
aI3
aI3
aI1
aI2
aI8
aI0
aa(lp232
I4
aI6
aI5
aI4
aI7
aI6
aI9
aI8
aI4
aI2
aI3
aI0
aI1
aa(lp233
I6
aI5
aI4
aI7
aI9
aI8
aI4
aI2
aI3
aI0
aI1
aa(lp234
I4
aI6
aI5
aI4
aI7
aI9
aI8
aI4
aI2
aI3
aI0
aI1
aa(lp235
I4
aI5
aI4
aI7
aI9
aI8
aI4
aI2
aI3
aI6
aI0
aI1
aa(lp236
I4
aI6
aI5
aI4
aI7
aI4
aI9
aI8
aI4
aI2
aI2
aI3
aI0
aI1
aa(lp237
I3
aI5
aI4
aI3
aI8
aI7
aI3
aI1
aI2
aI0
aI6
aa(lp238
I4
aI6
aI5
aI4
aI7
aI9
aI8
aI4
aI2
aI3
aI0
aI1
aa(lp239
I4
aI8
aI6
aI5
aI4
aI7
aI9
aI3
aI4
aI2
aI8
aI0
aI1
aa(lp240
I4
aI6
aI5
aI9
aI4
aI1
aI7
aI9
aI8
aI4
aI2
aI3
aI0
aa(lp241
I4
aI6
aI5
aI4
aI7
aI9
aI8
aI4
aI6
aI2
aI3
aI0
aI1
aa(lp242
I3
aI5
aI4
aI3
aI6
aI8
aI7
aI3
aI7
aI2
aI0
aI1
aa(lp243
I4
aI6
aI5
aI4
aI9
aI7
aI9
aI8
aI4
aI2
aI8
aI3
aI0
aI1
aa(lp244
I3
aI5
aI4
aI3
aI6
aI7
aI3
aI1
aI2
aI8
aI0
aa(lp245
I4
aI6
aI5
aI4
aI7
aI9
aI8
aI4
aI2
aI3
aI0
aI1
aa(lp246
I4
aI6
aI6
aI5
aI4
aI7
aI9
aI2
aI8
aI4
aI2
aI3
aI0
aI1
aa(lp247
I3
aI5
aI4
aI3
aI6
aI8
aI7
aI3
aI3
aI1
aI2
aI0
aa(lp248
I3
aI4
aI6
aI5
aI7
aI8
aI3
aI1
aI2
aI8
aI0
aa(lp249
I4
aI6
aI5
aI4
aI4
aI7
aI9
aI8
aI0
aI4
aI2
aI2
aI3
aI0
aI1
aa(lp250
I2
aI4
aI6
aI5
aI4
aI7
aI9
aI1
aI8
aI4
aI2
aI3
aI3
aI0
aI1
aa(lp251
I4
aI6
aI5
aI4
aI7
aI9
aI8
aI4
aI2
aI3
aI0
aI1
aa(lp252
I4
aI6
aI5
aI4
aI7
aI9
aI8
aI4
aI2
aI6
aI3
aI0
aI1
aa(lp253
I4
aI6
aI4
aI5
aI4
aI7
aI9
aI8
aI2
aI3
aI0
aI1
aa(lp254
I3
aI4
aI7
aI3
aI6
aI8
aI7
aI1
aI2
aI5
aI0
aa(lp255
I4
aI6
aI5
aI4
aI8
aI7
aI9
aI3
aI4
aI2
aI8
aI0
aI1
aa(lp256
I4
aI6
aI6
aI5
aI4
aI7
aI9
aI8
aI4
aI2
aI3
aI7
aI0
aI1
aa(lp257
I3
aI5
aI4
aI3
aI6
aI8
aI3
aI2
aI7
aI0
aI1
aa(lp258
I4
aI6
aI5
aI4
aI7
aI9
aI8
aI4
aI2
aI3
aI0
aI1
aa(lp259
I4
aI6
aI5
aI4
aI7
aI8
aI9
aI8
aI4
aI2
aI3
aI0
aI1
aa(lp260
I2
aI5
aI3
aI2
aI5
aI7
aI1
aI2
aI6
aI4
aI0
aa(lp261
I3
aI5
aI4
aI6
aI8
aI7
aI3
aI2
aI0
aI1
aa(lp262
I4
aI6
aI5
aI4
aI7
aI9
aI8
aI2
aI4
aI2
aI3
aI0
aI1
aa(lp263
I3
aI5
aI4
aI3
aI6
aI8
aI3
aI2
aI7
aI0
aI1
aa(lp264
I3
aI5
aI4
aI3
aI6
aI8
aI3
aI2
aI7
aI0
aI1
aa(lp265
I4
aI5
aI6
aI5
aI4
aI7
aI9
aI8
aI4
aI2
aI3
aI0
aI1
aa(lp266
I4
aI6
aI5
aI4
aI7
aI9
aI8
aI4
aI2
aI3
aI0
aI5
aI1
aa(lp267
I4
aI6
aI5
aI9
aI4
aI7
aI9
aI8
aI4
aI2
aI3
aI0
aI1
aa(lp268
I4
aI6
aI5
aI4
aI7
aI9
aI8
aI4
aI2
aI3
aI0
aI1
aa(lp269
I4
aI6
aI5
aI6
aI7
aI9
aI8
aI4
aI2
aI3
aI3
aI0
aI1
aa(lp270
I4
aI6
aI5
aI4
aI7
aI9
aI8
aI4
aI2
aI3
aI0
aI1
aa(lp271
I4
aI6
aI5
aI4
aI7
aI9
aI8
aI4
aI2
aI3
aI0
aI1
aa(lp272
I2
aI4
aI3
aI2
aI5
aI7
aI6
aI2
aI1
aI0
aa(lp273
I2
aI4
aI3
aI2
aI7
aI2
aI1
aI6
aI0
aI5
aa(lp274
I3
aI5
aI4
aI3
aI6
aI7
aI3
aI1
aI2
aI8
aI0
aa(lp275
I4
aI6
aI4
aI5
aI4
aI7
aI9
aI8
aI4
aI2
aI3
aI0
aI1
aa(lp276
I4
aI6
aI5
aI4
aI7
aI9
aI8
aI4
aI2
aI8
aI3
aI0
aI1
aa(lp277
I4
aI6
aI5
aI4
aI7
aI9
aI8
aI4
aI2
aI1
aI3
aI0
aI1
aa(lp278
I4
aI6
aI5
aI6
aI4
aI7
aI9
aI8
aI4
aI2
aI3
aI0
aI1
aa(lp279
I4
aI6
aI5
aI9
aI4
aI7
aI9
aI8
aI6
aI4
aI2
aI3
aI0
aI1
aa(lp280
I4
aI6
aI5
aI4
aI7
aI9
aI8
aI4
aI0
aI2
aI3
aI0
aI1
aa(lp281
I3
aI4
aI3
aI5
aI7
aI6
aI3
aI1
aI2
aI0
aa(lp282
I4
aI6
aI5
aI4
aI7
aI9
aI8
aI4
aI2
aI3
aI0
aI1
aa(lp283
I7
aI4
aI6
aI5
aI4
aI7
aI9
aI8
aI4
aI2
aI3
aI2
aI0
aI1
aa(lp284
I3
aI5
aI4
aI3
aI6
aI7
aI1
aI2
aI8
aI0
aa(lp285
I3
aI5
aI4
aI3
aI6
aI8
aI7
aI3
aI1
aI2
aI0
aa(lp286
I3
aI5
aI4
aI3
aI6
aI8
aI7
aI3
aI2
aI2
aI0
aI1
aa(lp287
I4
aI6
aI5
aI4
aI7
aI9
aI8
aI4
aI2
aI3
aI0
aI1
aa(lp288
I9
aI4
aI6
aI5
aI4
aI7
aI9
aI8
aI4
aI2
aI3
aI0
aI1
aa(lp289
I4
aI6
aI5
aI4
aI7
aI9
aI8
aI4
aI2
aI3
aI0
aI1
aa(lp290
I3
aI5
aI4
aI5
aI3
aI6
aI8
aI7
aI3
aI2
aI0
aI1
aa(lp291
I5
aI4
aI3
aI6
aI8
aI7
aI3
aI1
aI6
aI2
aI0
aa(lp292
I4
aI0
aI6
aI5
aI4
aI7
aI9
aI8
aI4
aI2
aI3
aI0
aI1
aa(lp293
I3
aI5
aI4
aI3
aI6
aI8
aI7
aI3
aI2
aI0
aI1
aa(lp294
I4
aI6
aI5
aI4
aI7
aI9
aI8
aI4
aI2
aI3
aI0
aI0
aI1
aa(lp295
I4
aI7
aI6
aI5
aI4
aI7
aI9
aI8
aI4
aI2
aI3
aI0
aI1
aa(lp296
I5
aI4
aI3
aI8
aI2
aI3
aI7
aI1
aI7
aI0
aI6
aa(lp297
I3
aI5
aI4
aI3
aI6
aI8
aI7
aI3
aI2
aI0
aI1
aa(lp298
I4
aI6
aI5
aI4
aI8
aI7
aI9
aI3
aI4
aI2
aI8
aI0
aI1
aa(lp299
I4
aI8
aI6
aI5
aI4
aI7
aI9
aI8
aI4
aI2
aI3
aI0
aI1
aa(lp300
I4
aI6
aI5
aI4
aI7
aI9
aI8
aI4
aI2
aI3
aI0
aI1
aa(lp301
I2
aI1
aI0
aI3
aa(lp302
I1
aI0
aI2
aa(lp303
I1
aI0
aI2
aa(lp304
I2
aI1
aI0
aa(lp305
I1
aI1
aI0
aI2
aa(lp306
I2
aI1
aI0
aI3
aa(lp307
I1
aI0
aa(lp308
I1
aI0
aa(lp309
I2
aI1
aI0
aI3
aa(lp310
I2
aI1
aI0
aI0
aI3
aa(lp311
I3
aI2
aI0
aI1
aI4
aa(lp312
I2
aI1
aI0
aI2
aI3
aa(lp313
I3
aI2
aI1
aI0
aa(lp314
I2
aI0
aI1
aa(lp315
I0
aI0
aI1
aa(lp316
I1
aI0
aa(lp317
I1
aI0
aa(lp318
I0
aI1
aa(lp319
I3
aI0
aI2
aI1
aI4
aa(lp320
I3
aI2
aI1
aI0
aI4
aa(lp321
I2
aI1
aI1
aI0
aI3
aa(lp322
I2
aI1
aI0
aI3
aI3
aa(lp323
I1
aI0
aI2
aa(lp324
I2
aI1
aI0
aI3
aa(lp325
I1
aI2
aI0
aI2
aI3
aa(lp326
I2
aI1
aI0
aI3
aa(lp327
I2
aI3
aI0
aI1
aI4
aa(lp328
I2
aI1
aI0
aI1
aI3
aa(lp329
I1
aI0
aI2
aa(lp330
I2
aI3
aI0
aI1
aI4
aa(lp331
I0
aI1
aa(lp332
I0
aI1
aa(lp333
I2
aI1
aI0
aI3
aa(lp334
I3
aI2
aI1
aI0
aI4
aa(lp335
I0
aI1
aa(lp336
I2
aI1
aI0
aI3
aa(lp337
I2
aI1
aI0
aI3
aa(lp338
I2
aI1
aI1
aI0
aI3
aa(lp339
I1
aI0
aI2
aa(lp340
I3
aI2
aI0
aI1
aI4
aa(lp341
I2
aI0
aI1
aI3
aa(lp342
I1
aI0
aI2
aa(lp343
I1
aI0
aI2
aa(lp344
I2
aI1
aI0
aa(lp345
I4
aI3
aI2
aI1
aI0
aa(lp346
I2
aI1
aI0
aa(lp347
I2
aI1
aI0
aI3
aa(lp348
I2
aI1
aI0
aI3
aa(lp349
I0
aI2
aI1
aI0
aa(lp350
I3
aI2
aI1
aI0
aa(lp351
I0
aI4
aI2
aI3
aI1
aI5
aa(lp352
I1
aI0
aI2
aa(lp353
I3
aI2
aI1
aI0
aI3
aa(lp354
I2
aI3
aI1
aI0
aI3
aa(lp355
I3
aI1
aI2
aI0
aI4
aa(lp356
I2
aI1
aI0
aI3
aa(lp357
I1
aI0
aI2
aa(lp358
I2
aI1
aI0
aI3
aa(lp359
I2
aI0
aI1
aI3
aa(lp360
I1
aI0
aI2
aa(lp361
I0
aI1
aI0
aI2
aa(lp362
I1
aI0
aI1
aI2
aa(lp363
I2
aI1
aI0
aI3
aa(lp364
I2
aI1
aI0
aI3
aa(lp365
I0
aI1
aI3
aI4
aI2
aI5
aa(lp366
I2
aI1
aI0
aa(lp367
I2
aI1
aI0
aI3
aa(lp368
I2
aI1
aI0
aI0
aI3
aa(lp369
I2
aI1
aI0
aa(lp370
I3
aI2
aI0
aI0
aI1
aa(lp371
I2
aI1
aI0
aI3
aa(lp372
I2
aI1
aI0
aI3
aa(lp373
I3
aI2
aI2
aI4
aI0
aI1
aa(lp374
I1
aI3
aI2
aI1
aI0
aI4
aa(lp375
I3
aI2
aI4
aI0
aI1
aa(lp376
I0
aa(lp377
I1
aI0
aI2
aa(lp378
I2
aI1
aI0
aI0
aI3
aa(lp379
I2
aI1
aI0
aI3
aa(lp380
I2
aI1
aI0
aI3
aa(lp381
I2
aI1
aI0
aa(lp382
I1
aI0
aa(lp383
I1
aI0
aI2
aa(lp384
I1
aI0
aI2
aa(lp385
I4
aI3
aI2
aI0
aI1
aa(lp386
I1
aI0
aI2
aa(lp387
I4
aI3
aI2
aI0
aI1
aa(lp388
I2
aI3
aI0
aI1
aI4
aa(lp389
I2
aI1
aI0
aI1
aI3
aa(lp390
I2
aI1
aI0
aa(lp391
I0
aI2
aI1
aI3
aa(lp392
I1
aI0
aI2
aa(lp393
I0
aI3
aI2
aI1
aI4
aa(lp394
I1
aI2
aI3
aI1
aI0
aI3
aa(lp395
I1
aI1
aI0
aa(lp396
I0
aI2
aI1
aI3
aa(lp397
I1
aI2
aI0
aI3
aa(lp398
I2
aI3
aI0
aI1
aI4
aa(lp399
I1
aI2
aI0
aI3
aa(lp400
I2
aI1
aI0
aa(lp401
I3
aI0
aI2
aI1
aI4
aa(lp402
I1
aI0
aa(lp403
I2
aI0
aI1
aI3
aa(lp404
I2
aI1
aI0
aa(lp405
I0
aI1
aa(lp406
I2
aI1
aI0
aI3
aa(lp407
I2
aI0
aI1
aI0
aI3
aa(lp408
I2
aI1
aI0
aa(lp409
I2
aI1
aI0
aa(lp410
I2
aI1
aI0
aI3
aa(lp411
I1
aI3
aI2
aI2
aI0
aI4
aa(lp412
I4
aI3
aI2
aI0
aI1
aa(lp413
I1
aI2
aI0
aI3
aa(lp414
I2
aI1
aI0
aa(lp415
I3
aI1
aI4
aI2
aI0
aI1
aI4
aa(lp416
I2
aI1
aI0
aI3
aa(lp417
I2
aI0
aI1
aI0
aI3
aa(lp418
I2
aI1
aI0
aI3
aa(lp419
I3
aI0
aI2
aI1
aI4
aa(lp420
I2
aI1
aI0
aI2
aI3
aa(lp421
I1
aI0
aI2
aa(lp422
I1
aI0
aI2
aa(lp423
I2
aI1
aI0
aa(lp424
I1
aI0
aI2
aa(lp425
I2
aI3
aI1
aI0
aI3
aa(lp426
I2
aI1
aI0
aI3
aa(lp427
I2
aI1
aI0
aa(lp428
I1
aI0
aI2
aa(lp429
I2
aI1
aI0
aa(lp430
I3
aI3
aI2
aI1
aI0
aa(lp431
I2
aI1
aI1
aI0
aa(lp432
I1
aI0
aI2
aa(lp433
I2
aI1
aI0
aI3
aa(lp434
I2
aI1
aI0
aI3
aa(lp435
I2
aI1
aI3
aI2
aI0
aI4
aa(lp436
I0
aI3
aI2
aI1
aI4
aa(lp437
I1
aI0
aI2
aa(lp438
I3
aI2
aI1
aI0
aI4
aa(lp439
I2
aI0
aI1
aI0
aI3
aa(lp440
I2
aI0
aI1
aa(lp441
I2
aI1
aI0
aI0
aI3
aa(lp442
I4
aI3
aI0
aI1
aI2
aI5
aa(lp443
I3
aI0
aI2
aI1
aI4
aa(lp444
I1
aI0
aI2
aa(lp445
I2
aI1
aI0
aI3
aa(lp446
I2
aI1
aI0
aa(lp447
I0
aI2
aI1
aI0
aI3
aa(lp448
I2
aI1
aI0
aI0
aI3
aa(lp449
I1
aI0
aa(lp450
I1
aI0
aI2
aa(lp451
I1
aI0
aI0
aI2
aa(lp452
I0
aI2
aI1
aa(lp453
I1
aI0
aI2
aa(lp454
I2
aI1
aI0
aI3
aa(lp455
I0
aI3
aI2
aI1
aI4
aa(lp456
I4
aI3
aI2
aI0
aI1
aa(lp457
I2
aI1
aI0
aI2
aI3
aa(lp458
I2
aI1
aI0
aI3
aa(lp459
I1
aI0
aI0
aI2
aa(lp460
I0
aI1
aa(lp461
I1
aI2
aI0
aI3
aa(lp462
I1
aI0
aI2
aa(lp463
I2
aI2
aI1
aI0
aI3
aa(lp464
I2
aI2
aI1
aI0
aI0
aI3
aa(lp465
I2
aI1
aI0
aI1
aI3
aa(lp466
I2
aI0
aI3
aI1
aI4
aI5
aa(lp467
I1
aI0
aI1
aI2
aa(lp468
I0
aa(lp469
I1
aI0
aa(lp470
I2
aI3
aI0
aI0
aI1
aI4
aa(lp471
I3
aI2
aI1
aI0
aI4
aa(lp472
I2
aI1
aI0
aI3
aa(lp473
I2
aI1
aI0
aI3
aa(lp474
I2
aI1
aI0
aI3
aa(lp475
I2
aI0
aI3
aI1
aa(lp476
I2
aI1
aI0
aI3
aI3
aa(lp477
I1
aI0
aI2
aa(lp478
I2
aI1
aI0
aa(lp479
I0
aI2
aI1
aI0
aI3
aa(lp480
I1
aI0
aI2
aa(lp481
I0
aI2
aI1
aI3
aa(lp482
I3
aI2
aI1
aI0
aI4
aa(lp483
I2
aI1
aI1
aI0
aI3
aa(lp484
I1
aI0
aI2
aa(lp485
I3
aI1
aI2
aI0
aI4
aa(lp486
I1
aI0
aI2
aa(lp487
I0
aI4
aI3
aI1
aI2
aI5
aa(lp488
I2
aI0
aI3
aI4
aI1
aI5
aa(lp489
I2
aI1
aI3
aI0
aa(lp490
I2
aI1
aI0
aa(lp491
I0
aI3
aI2
aI1
aI4
aa(lp492
I3
aI2
aI0
aI4
aI1
aa(lp493
I1
aI0
aI2
aa(lp494
I2
aI1
aI0
aI3
aa(lp495
I2
aI1
aI1
aI0
aI3
aa(lp496
I2
aI1
aI0
aa(lp497
I0
aI4
aI2
aI3
aI1
aI5
aa(lp498
I1
aI0
aI2
aa(lp499
I1
aI0
aI2
aa(lp500
I2
aI1
aI0
aI3
aa(lp501
I1
aI0
aI2
aa(lp502
I1
aI0
aI2
aa(lp503
I2
aI1
aI1
aI0
aI3
aa(lp504
I3
aI2
aI1
aI0
aI4
aa(lp505
I2
aI1
aI0
aI3
aa(lp506
I2
aI1
aI0
aa(lp507
I3
aI2
aI0
aI1
aI4
aa(lp508
I3
aI2
aI0
aI1
aI4
aa(lp509
I1
aI0
aI2
aa(lp510
I2
aI1
aI2
aI0
aI3
aa(lp511
I3
aI0
aI2
aI1
aI0
aI3
aa(lp512
I0
aI3
aI2
aI1
aI4
aa(lp513
I2
aI1
aI0
aI3
aa(lp514
I2
aI1
aI0
aI3
aa(lp515
I0
aI1
aa(lp516
I2
aI4
aI0
aI3
aI1
aI5
aa(lp517
I1
aI0
aI0
aI2
aa(lp518
I2
aI1
aI0
aI3
aa(lp519
I1
aI0
aI2
aa(lp520
I2
aI1
aI0
aa(lp521
I2
aI1
aI0
aa(lp522
I1
aI0
aI2
aa(lp523
I2
aI1
aI0
aI2
aI3
aa(lp524
I2
aI1
aI2
aI0
aI3
aa(lp525
I3
aI2
aI1
aI0
aI4
aa(lp526
I2
aI1
aI0
aI3
aa(lp527
I0
aa(lp528
I2
aI3
aI1
aI0
aa(lp529
I2
aI1
aI0
aI3
aI3
aa(lp530
I3
aI2
aI0
aI1
aI2
aI4
aa(lp531
I2
aI2
aI1
aI0
aa(lp532
I3
aI1
aI2
aI0
aI4
aa(lp533
I2
aI1
aI0
aa(lp534
I1
aI0
aI2
aa(lp535
I3
aI0
aI2
aI1
aI4
aa(lp536
I3
aI2
aI1
aI0
aI4
aa(lp537
I0
aI1
aa(lp538
I3
aI2
aI4
aI0
aI1
aa(lp539
I2
aI1
aI1
aI0
aI3
aa(lp540
I4
aI3
aI2
aI0
aI1
aI4
aa(lp541
I1
aI0
aI2
aa(lp542
I1
aI0
aI2
aa(lp543
I2
aI1
aI0
aI3
aa(lp544
I2
aI1
aI0
aI3
aa(lp545
I2
aI1
aI0
aa(lp546
I2
aI1
aI0
aI3
aI3
aa(lp547
I2
aI1
aI0
aa(lp548
I2
aI0
aI1
aI0
aI3
aa(lp549
I1
aI2
aI0
aI3
aa(lp550
I1
aI0
aI2
aa(lp551
I2
aI1
aI0
aa(lp552
I2
aI1
aI0
aI2
aI3
aa(lp553
I1
aI0
aI2
aa(lp554
I3
aI0
aI2
aI1
aI4
aa(lp555
I2
aI1
aI0
aI3
aa(lp556
I0
aI4
aI3
aI1
aI2
aI5
aa(lp557
I2
aI1
aI0
aI1
aI3
aa(lp558
I2
aI0
aI1
aI3
aa(lp559
I2
aI1
aI0
aI1
aI3
aa(lp560
I2
aI1
aI0
aI3
aa(lp561
I1
aI0
aI2
aa(lp562
I2
aI1
aI0
aa(lp563
I2
aI1
aI0
aI3
aa(lp564
I1
aI0
aI2
aa(lp565
I2
aI1
aI3
aI0
aa(lp566
I0
aI4
aI3
aI2
aI1
aI5
aa(lp567
I3
aI2
aI0
aI2
aI1
aI4
aa(lp568
I2
aI1
aI0
aI3
aa(lp569
I3
aI1
aI0
aI2
aI4
aa(lp570
I0
aI2
aI1
aI0
aI3
aa(lp571
I1
aI0
aI2
aa(lp572
I2
aI1
aI0
aI3
aa(lp573
I2
aI1
aI0
aa(lp574
I2
aI1
aI0
aI3
aa(lp575
I1
aI0
aI2
aa(lp576
I2
aI1
aI0
aI3
aa(lp577
I2
aI1
aI0
aI3
aa(lp578
I1
aI0
aI2
aI3
aa(lp579
I2
aI1
aI1
aI0
aI3
aa(lp580
I1
aI0
aI2
aa(lp581
I2
aI0
aI1
aI3
aa(lp582
I1
aI0
aa(lp583
I0
aI1
aa(lp584
I3
aI1
aI0
aI2
aI4
aa(lp585
I3
aI1
aI2
aI0
aI4
aa(lp586
I2
aI1
aI0
aI3
aa(lp587
I0
aI1
aI0
aI2
aa(lp588
I1
aI0
aa(lp589
I1
aI0
aI0
aa(lp590
I3
aI1
aI2
aI0
aI4
aa(lp591
I1
aI0
aI2
aa(lp592
I2
aI1
aI0
aa(lp593
I2
aI1
aI0
aI3
aa(lp594
I1
aI0
aI2
aa(lp595
I3
aI2
aI0
aI1
aI4
aa(lp596
I2
aI1
aI0
aI3
aa(lp597
I1
aI1
aI0
aI2
aa(lp598
I2
aI1
aI0
aa(lp599
I3
aI2
aI0
aI1
aI4
aa(lp600
I2
aI1
aI0
aI3
aa(lp601
I1
aI3
aI2
aI0
aa(lp602
I2
aI1
aI0
aa(lp603
I1
aI2
aI0
aa(lp604
I2
aI1
aI0
aI0
aa(lp605
I1
aI1
aI0
aa(lp606
I1
aI0
aa(lp607
I1
aI0
aa(lp608
I2
aI1
aI0
aa(lp609
I1
aI2
aI0
aa(lp610
I2
aI1
aI0
aa(lp611
I1
aI0
aa(lp612
I0
aa(lp613
I1
aI0
aa(lp614
I1
aI2
aI0
aa(lp615
I0
aa(lp616
I1
aI0
aa(lp617
I1
aI0
aa(lp618
I0
aI2
aI1
aa(lp619
I1
aI2
aI0
aa(lp620
I0
aa(lp621
I0
aa(lp622
I1
aI0
aa(lp623
I0
aI1
aI0
aa(lp624
I0
aI2
aI1
aa(lp625
I0
aa(lp626
I2
aI1
aI0
aa(lp627
I1
aI0
aa(lp628
I1
aI2
aI0
aa(lp629
I0
aa(lp630
I0
aa(lp631
I4
aI2
aI3
aI1
aI0
aa(lp632
I1
aI2
aI0
aa(lp633
I3
aI2
aI1
aI0
aa(lp634
I1
aI0
aa(lp635
I1
aI2
aI0
aa(lp636
I1
aI0
aI2
aI0
aa(lp637
I0
aa(lp638
I2
aI1
aI0
aa(lp639
I0
aa(lp640
I0
aa(lp641
I1
aI0
aa(lp642
I1
aI0
aa(lp643
I1
aI2
aI1
aI0
aa(lp644
I2
aI1
aI0
aa(lp645
I1
aI1
aI0
aa(lp646
I0
aa(lp647
I0
aa(lp648
I0
aa(lp649
I1
aI0
aa(lp650
I2
aI1
aI0
aa(lp651
I1
aI0
aa(lp652
I0
aa(lp653
I0
aa(lp654
I3
aI2
aI1
aI0
aa(lp655
I1
aI0
aa(lp656
I1
aI0
aa(lp657
I1
aI0
aa(lp658
I0
aa(lp659
I1
aI0
aa(lp660
I0
aI1
aI0
aa(lp661
I0
aa(lp662
I0
aa(lp663
I1
aI0
aa(lp664
I1
aI0
aa(lp665
I0
aa(lp666
I1
aI0
aa(lp667
I1
aI0
aa(lp668
I1
aI2
aI0
aa(lp669
I1
aI0
aa(lp670
I0
aa(lp671
I0
aa(lp672
I1
aI0
aa(lp673
I1
aI0
aa(lp674
I0
aI1
aa(lp675
I1
aI0
aa(lp676
I0
aa(lp677
I1
aI0
aa(lp678
I2
aI1
aI0
aa(lp679
I0
aI1
aa(lp680
I1
aI0
aa(lp681
I1
aI2
aI0
aa(lp682
I2
aI2
aI1
aI0
aa(lp683
I1
aI2
aI0
aa(lp684
I0
aa(lp685
I2
aI1
aI0
aa(lp686
I1
aI0
aa(lp687
I3
aI2
aI1
aI0
aa(lp688
I0
aa(lp689
I0
aa(lp690
I0
aa(lp691
I1
aI0
aa(lp692
I1
aI0
aa(lp693
I0
aa(lp694
I0
aa(lp695
I0
aI2
aI3
aI1
aa(lp696
I1
aI2
aI0
aa(lp697
I1
aI0
aa(lp698
I1
aI0
aa(lp699
I1
aI0
aa(lp700
I0
aI1
aa(lp701
I0
aa(lp702
I0
aa(lp703
I0
aI1
aa(lp704
I0
aa(lp705
I1
aI0
aa(lp706
I0
aa(lp707
I1
aI0
aa(lp708
I2
aI1
aI0
aa(lp709
I2
aI0
aI1
aa(lp710
I1
aI0
aa(lp711
I0
aa(lp712
I2
aI1
aI0
aa(lp713
I0
aa(lp714
I1
aI0
aa(lp715
I1
aI0
aa(lp716
I1
aI2
aI0
aa(lp717
I1
aI2
aI0
aa(lp718
I0
aa(lp719
I0
aI1
aa(lp720
I1
aI0
aa(lp721
I2
aI1
aI0
aa(lp722
I1
aI1
aI2
aI0
aa(lp723
I0
aa(lp724
I0
aa(lp725
I0
aa(lp726
I0
aa(lp727
I1
aI0
aa(lp728
I0
aa(lp729
I0
aI0
aa(lp730
I1
aI0
aa(lp731
I1
aI0
aI0
aa(lp732
I0
aa(lp733
I2
aI0
aI1
aa(lp734
I0
aa(lp735
I1
aI0
aa(lp736
I0
aa(lp737
I1
aI0
aa(lp738
I0
aa(lp739
I1
aI0
aa(lp740
I0
aa(lp741
I1
aI0
aa(lp742
I0
aa(lp743
I0
aa(lp744
I0
aa(lp745
I2
aI1
aI0
aa(lp746
I2
aI1
aI0
aa(lp747
I1
aI0
aI0
aa(lp748
I0
aa(lp749
I0
aa(lp750
I3
aI1
aI2
aI0
aa(lp751
I1
aI0
aa(lp752
I1
aI0
aI2
aI0
aa(lp753
I1
aI0
aa(lp754
I0
aI1
aa(lp755
I1
aI3
aI2
aI0
aa(lp756
I1
aI2
aI0
aa(lp757
I2
aI1
aI0
aa(lp758
I3
aI2
aI1
aI0
aa(lp759
I1
aI0
aI1
aa(lp760
I0
aa(lp761
I1
aI0
aa(lp762
I1
aI0
aa(lp763
I0
aa(lp764
I0
aa(lp765
I1
aI0
aa(lp766
I3
aI2
aI0
aI1
aa(lp767
I1
aI2
aI0
aa(lp768
I0
aI1
aI0
aa(lp769
I0
aa(lp770
I1
aI0
aa(lp771
I0
aa(lp772
I0
aI2
aI1
aa(lp773
I0
aa(lp774
I2
aI0
aI1
aa(lp775
I0
aa(lp776
I1
aI0
aa(lp777
I1
aI2
aI0
aa(lp778
I2
aI3
aI1
aI0
aa(lp779
I2
aI1
aI0
aa(lp780
I0
aI2
aI0
aI1
aa(lp781
I0
aa(lp782
I0
aa(lp783
I1
aI1
aI0
aa(lp784
I0
aa(lp785
I1
aI2
aI0
aa(lp786
I2
aI1
aI0
aa(lp787
I1
aI1
aI0
aa(lp788
I0
aa(lp789
I0
aI2
aI1
aa(lp790
I0
aI0
aa(lp791
I0
aa(lp792
I2
aI1
aI0
aa(lp793
I0
aa(lp794
I1
aI0
aa(lp795
I1
aI0
aa(lp796
I0
aI1
aa(lp797
I1
aI2
aI0
aa(lp798
I2
aI1
aI0
aa(lp799
I2
aI0
aI1
aa(lp800
I0
aa(lp801
I0
aI0
aa(lp802
I1
aI0
aa(lp803
I0
aa(lp804
I1
aI1
aI0
aa(lp805
I0
aa(lp806
I1
aI0
aa(lp807
I2
aI1
aI0
aa(lp808
I0
aI1
aI0
aa(lp809
I1
aI0
aI0
aa(lp810
I1
aI0
aa(lp811
I1
aI0
aa(lp812
I1
aI0
aa(lp813
I1
aI0
aa(lp814
I1
aI0
aa(lp815
I3
aI2
aI0
aI1
aa(lp816
I0
aI1
aa(lp817
I1
aI0
aa(lp818
I0
aa(lp819
I0
aa(lp820
I1
aI0
aa(lp821
I1
aI2
aI0
aa(lp822
I1
aI2
aI0
aa(lp823
I1
aI0
aa(lp824
I0
aI1
aa(lp825
I0
aa(lp826
I1
aI0
aa(lp827
I0
aI0
aa(lp828
I1
aI2
aI0
aa(lp829
I0
aa(lp830
I1
aI0
aa(lp831
I2
aI1
aI0
aa(lp832
I0
aa(lp833
I0
aa(lp834
I1
aI0
aa(lp835
I1
aI0
aa(lp836
I2
aI0
aI1
aa(lp837
I2
aI1
aI0
aa(lp838
I0
aa(lp839
I1
aI0
aa(lp840
I2
aI1
aI0
aa(lp841
I2
aI1
aI0
aa(lp842
I1
aI0
aa(lp843
I2
aI1
aI0
aa(lp844
I0
aa(lp845
I0
aI0
aa(lp846
I0
aI1
aI0
aa(lp847
I0
aa(lp848
I1
aI1
aI0
aa(lp849
I1
aI0
aa(lp850
I2
aI1
aI3
aI0
aa(lp851
I1
aI0
aa(lp852
I1
aI0
aa(lp853
I0
aa(lp854
I0
aa(lp855
I2
aI1
aI0
aa(lp856
I2
aI1
aI0
aa(lp857
I1
aI2
aI0
aa(lp858
I0
aa(lp859
I1
aI2
aI0
aa(lp860
I1
aI1
aI2
aI0
aa(lp861
I0
aa(lp862
I1
aI2
aI3
aI0
aa(lp863
I1
aI2
aI0
aa(lp864
I2
aI1
aI0
aa(lp865
I1
aI2
aI0
aa(lp866
I0
aa(lp867
I1
aI0
aa(lp868
I0
aI1
aa(lp869
I1
aI2
aI0
aa(lp870
I0
aI0
aa(lp871
I1
aI0
aa(lp872
I0
aa(lp873
I0
aa(lp874
I0
aa(lp875
I0
aa(lp876
I1
aI0
aa(lp877
I1
aI0
aa(lp878
I0
aa(lp879
I1
aI0
aa(lp880
I0
aa(lp881
I0
aa(lp882
I0
aI1
aa(lp883
I0
aa(lp884
I0
aa(lp885
I0
aa(lp886
I1
aI0
aa(lp887
I2
aI1
aI0
aa(lp888
I2
aI1
aI0
aa(lp889
I0
aI1
aa(lp890
I1
aI0
aa(lp891
I1
aI0
aa(lp892
I1
aI0
aa(lp893
I0
aa(lp894
I1
aI2
aI0
aa(lp895
I2
aI1
aI0
aa(lp896
I1
aI0
aa(lp897
I0
aa(lp898
I1
aI0
aa(lp899
I0
aa(lp900
I1
aI2
aI0
aa(lp901
I0
aa(lp902
I1
aI0
aa(lp903
I0
aa(lp904
I0
aa(lp905
I2
aI1
aI0
aa(lp906
I1
aI0
aI2
aa(lp907
I0
aa(lp908
I1
aI0
aa(lp909
I2
aI1
aI0
aa(lp910
I2
aI3
aI1
aI0
aa(lp911
I0
aa(lp912
I0
aa(lp913
I0
aa(lp914
I1
aI0
aa(lp915
I2
aI1
aI0
aa(lp916
I1
aI0
aa(lp917
I1
aI0
aa(lp918
I0
aa(lp919
I0
aa(lp920
I1
aI0
aI1
aa(lp921
I0
aa(lp922
I1
aI3
aI2
aI0
aa(lp923
I0
aa(lp924
I0
aa(lp925
I0
aa(lp926
I1
aI2
aI0
aa(lp927
I0
aa(lp928
I2
aI1
aI0
aa(lp929
I0
aa(lp930
I0
aa(lp931
I1
aI3
aI2
aI0
aa(lp932
I0
aa(lp933
I0
aa(lp934
I2
aI1
aI0
aa(lp935
I0
aI1
aa(lp936
I0
aI1
aa(lp937
I0
aI1
aa(lp938
I1
aI0
aa(lp939
I1
aI0
aa(lp940
I0
aa(lp941
I1
aI0
aa(lp942
I1
aI0
aa(lp943
I2
aI1
aI0
aa(lp944
I0
aI0
aa(lp945
I1
aI2
aI0
aa(lp946
I2
aI1
aI0
aa(lp947
I0
aI1
aa(lp948
I2
aI1
aI0
aa(lp949
I0
aI2
aI1
aa(lp950
I0
aa(lp951
I0
aa(lp952
I1
aI0
aa(lp953
I1
aI2
aI0
aa(lp954
I0
aa(lp955
I0
aa(lp956
I2
aI1
aI0
aa(lp957
I0
aa(lp958
I0
aa(lp959
I1
aI0
aa(lp960
I0
aI2
aI1
aI0
aa(lp961
I0
aI0
aa(lp962
I1
aI2
aI3
aI0
aa(lp963
I0
aa(lp964
I1
aI0
aa(lp965
I0
aa(lp966
I1
aI0
aa(lp967
I1
aI0
aa(lp968
I1
aI2
aI0
aa(lp969
I1
aI2
aI0
aa(lp970
I0
aa(lp971
I0
aa(lp972
I1
aI0
aa(lp973
I1
aI0
aa(lp974
I1
aI0
aI1
aa(lp975
I0
aa(lp976
I2
aI1
aI0
aa(lp977
I2
aI1
aI0
aa(lp978
I1
aI0
aa(lp979
I0
aI1
aI0
aa(lp980
I2
aI1
aI0
aa(lp981
I0
aa(lp982
I0
aa(lp983
I0
aa(lp984
I0
aa(lp985
I1
aI0
aa(lp986
I1
aI2
aI0
aa(lp987
I1
aI0
aa(lp988
I1
aI2
aI0
aa(lp989
I1
aI2
aI0
aa(lp990
I0
aa(lp991
I0
aa(lp992
I1
aI0
aa(lp993
I1
aI0
aa(lp994
I2
aI1
aI0
aa(lp995
I1
aI2
aI0
aa(lp996
I0
aa(lp997
I1
aI1
aI2
aI0
aa(lp998
I2
aI0
aI1
aI0
aa(lp999
I1
aI0
aa(lp1000
I0
aa.