(lp0
(lp1
I3
aI5
aI4
aI3
aI6
aI8
aI7
aI1
aI2
aI0
aa(lp2
I4
aI5
aI4
aI5
aI6
aI8
aI7
aI4
aI2
aI3
aI0
aI1
aa(lp3
I4
aI6
aI5
aI4
aI5
aI0
aI7
aI9
aI8
aI4
aI2
aI3
aI0
aI1
aa(lp4
I4
aI6
aI5
aI4
aI7
aI9
aI8
aI2
aI3
aI0
aI1
aa(lp5
I4
aI4
aI6
aI5
aI4
aI7
aI9
aI8
aI4
aI4
aI2
aI3
aI0
aI1
aa(lp6
I4
aI6
aI5
aI4
aI7
aI9
aI8
aI2
aI3
aI0
aI1
aa(lp7
I3
aI5
aI4
aI3
aI5
aI8
aI7
aI3
aI1
aI2
aI0
aI6
aa(lp8
I4
aI6
aI6
aI5
aI4
aI7
aI9
aI8
aI4
aI2
aI3
aI0
aI1
aa(lp9
I4
aI6
aI5
aI8
aI4
aI7
aI9
aI8
aI4
aI2
aI3
aI0
aI1
aa(lp10
I8
aI4
aI6
aI5
aI4
aI7
aI9
aI8
aI4
aI2
aI3
aI0
aI1
aa(lp11
I6
aI5
aI7
aI9
aI8
aI4
aI2
aI3
aI0
aI1
aa(lp12
I4
aI6
aI5
aI4
aI7
aI9
aI8
aI4
aI7
aI2
aI3
aI0
aI1
aa(lp13
I3
aI5
aI4
aI3
aI8
aI7
aI3
aI1
aI2
aI0
aI6
aa(lp14
I2
aI4
aI3
aI2
aI1
aI2
aI0
aI6
aI7
aI5
aa(lp15
I4
aI6
aI5
aI4
aI7
aI9
aI8
aI4
aI2
aI3
aI0
aI1
aa(lp16
I2
aI4
aI3
aI2
aI7
aI6
aI2
aI1
aI0
aI5
aa(lp17
I3
aI5
aI4
aI3
aI6
aI8
aI3
aI2
aI7
aI0
aI1
aa(lp18
I4
aI6
aI5
aI7
aI4
aI7
aI8
aI9
aI8
aI4
aI2
aI3
aI7
aI0
aI1
aa(lp19
I4
aI6
aI8
aI5
aI4
aI7
aI9
aI8
aI4
aI2
aI3
aI0
aI1
aa(lp20
I4
aI6
aI5
aI4
aI7
aI9
aI6
aI8
aI4
aI2
aI3
aI0
aI1
aa(lp21
I3
aI5
aI4
aI3
aI6
aI7
aI3
aI1
aI2
aI8
aI0
aI0
aa(lp22
I4
aI9
aI6
aI5
aI4
aI7
aI9
aI8
aI4
aI2
aI3
aI0
aI1
aa(lp23
I8
aI4
aI6
aI5
aI4
aI7
aI9
aI3
aI4
aI2
aI8
aI0
aI1
aa(lp24
I3
aI5
aI4
aI1
aI3
aI6
aI8
aI3
aI2
aI7
aI0
aI1
aa(lp25
I4
aI6
aI5
aI7
aI9
aI8
aI4
aI2
aI3
aI0
aI1
aa(lp26
I3
aI5
aI4
aI3
aI6
aI8
aI7
aI3
aI8
aI1
aI2
aI0
aa(lp27
I3
aI4
aI3
aI6
aI8
aI7
aI3
aI1
aI2
aI5
aI0
aa(lp28
I4
aI6
aI5
aI4
aI8
aI7
aI9
aI3
aI4
aI2
aI8
aI0
aI8
aI1
aa(lp29
I3
aI5
aI4
aI3
aI6
aI7
aI3
aI1
aI2
aI8
aI0
aa(lp30
I4
aI6
aI5
aI7
aI9
aI8
aI4
aI2
aI3
aI0
aI1
aa(lp31
I4
aI6
aI5
aI4
aI7
aI9
aI8
aI4
aI2
aI4
aI3
aI0
aI1
aa(lp32
I4
aI6
aI5
aI5
aI4
aI7
aI9
aI8
aI4
aI2
aI3
aI0
aI1
aa(lp33
I3
aI5
aI4
aI3
aI6
aI8
aI3
aI2
aI7
aI0
aI1
aa(lp34
I4
aI5
aI0
aI4
aI6
aI8
aI7
aI4
aI2
aI3
aI0
aI1
aa(lp35
I4
aI6
aI5
aI4
aI7
aI9
aI8
aI4
aI2
aI3
aI0
aI1
aa(lp36
I4
aI6
aI5
aI4
aI7
aI9
aI8
aI4
aI2
aI9
aI3
aI0
aI1
aa(lp37
I4
aI6
aI5
aI6
aI4
aI7
aI9
aI8
aI2
aI3
aI0
aI1
aa(lp38
I4
aI6
aI5
aI4
aI7
aI9
aI4
aI8
aI4
aI2
aI3
aI0
aI1
aa(lp39
I4
aI6
aI5
aI4
aI7
aI9
aI8
aI4
aI2
aI3
aI7
aI0
aI1
aa(lp40
I3
aI5
aI4
aI3
aI6
aI8
aI7
aI3
aI0
aI1
aI2
aI0
aa(lp41
I4
aI6
aI5
aI4
aI7
aI8
aI9
aI8
aI2
aI3
aI0
aI1
aa(lp42
I3
aI5
aI4
aI3
aI6
aI8
aI3
aI7
aI3
aI2
aI0
aI1
aa(lp43
I4
aI6
aI5
aI4
aI7
aI9
aI8
aI4
aI4
aI2
aI5
aI3
aI0
aI1
aa(lp44
I6
aI3
aI5
aI4
aI3
aI6
aI8
aI3
aI2
aI7
aI0
aI1
aa(lp45
I4
aI6
aI4
aI5
aI4
aI7
aI9
aI8
aI4
aI2
aI3
aI0
aI1
aa(lp46
I2
aI4
aI3
aI2
aI5
aI7
aI6
aI2
aI0
aI1
aa(lp47
I4
aI6
aI5
aI4
aI7
aI8
aI9
aI3
aI2
aI8
aI0
aI1
aa(lp48
I3
aI5
aI4
aI3
aI6
aI7
aI3
aI1
aI2
aI8
aI0
aa(lp49
I3
aI5
aI4
aI3
aI7
aI6
aI8
aI7
aI3
aI1
aI2
aI0
aa(lp50
I4
aI6
aI7
aI5
aI4
aI7
aI9
aI8
aI4
aI2
aI3
aI0
aI1
aa(lp51
I3
aI5
aI4
aI3
aI6
aI8
aI7
aI0
aI3
aI1
aI2
aI0
aa(lp52
I4
aI6
aI5
aI4
aI7
aI9
aI8
aI3
aI4
aI2
aI8
aI0
aI1
aa(lp53
I4
aI6
aI5
aI4
aI7
aI9
aI8
aI4
aI2
aI3
aI5
aI0
aI1
aa(lp54
I4
aI6
aI5
aI4
aI4
aI8
aI7
aI9
aI3
aI4
aI6
aI2
aI8
aI0
aI1
aa(lp55
I3
aI4
aI3
aI6
aI8
aI7
aI3
aI1
aI2
aI5
aI0
aa(lp56
I6
aI5
aI4
aI7
aI2
aI9
aI8
aI4
aI1
aI3
aI9
aI0
aa(lp57
I4
aI6
aI5
aI4
aI6
aI1
aI9
aI7
aI8
aI4
aI2
aI3
aI0
aI7
aa(lp58
I4
aI6
aI5
aI4
aI7
aI9
aI8
aI4
aI4
aI2
aI3
aI0
aI1
aa(lp59
I3
aI4
aI3
aI6
aI8
aI7
aI3
aI1
aI2
aI5
aI0
aa(lp60
I4
aI6
aI5
aI4
aI7
aI9
aI8
aI4
aI0
aI2
aI3
aI0
aI1
aa(lp61
I3
aI4
aI3
aI6
aI8
aI7
aI3
aI1
aI2
aI5
aI0
aa(lp62
I4
aI6
aI6
aI5
aI4
aI7
aI9
aI8
aI4
aI2
aI3
aI0
aI1
aa(lp63
I4
aI6
aI5
aI4
aI7
aI7
aI9
aI8
aI4
aI2
aI3
aI0
aI1
aa(lp64
I4
aI0
aI6
aI5
aI4
aI7
aI9
aI8
aI2
aI3
aI0
aI1
aa(lp65
I9
aI4
aI6
aI5
aI4
aI7
aI9
aI8
aI4
aI2
aI3
aI0
aI1
aa(lp66
I3
aI5
aI4
aI3
aI6
aI8
aI3
aI2
aI7
aI0
aI1
aa(lp67
I4
aI6
aI5
aI4
aI7
aI9
aI8
aI3
aI4
aI2
aI3
aI0
aI1
aa(lp68
I4
aI6
aI5
aI4
aI7
aI9
aI8
aI4
aI2
aI3
aI0
aI1
aa(lp69
I3
aI5
aI4
aI6
aI8
aI7
aI3
aI1
aI2
aI4
aI0
aa(lp70
I4
aI6
aI9
aI5
aI4
aI7
aI9
aI8
aI4
aI2
aI3
aI0
aI1
aa(lp71
I3
aI5
aI4
aI6
aI7
aI3
aI1
aI2
aI8
aI0
aa(lp72
I3
aI5
aI4
aI7
aI3
aI0
aI6
aI8
aI6
aI7
aI3
aI1
aI2
aI6
aa(lp73
I3
aI5
aI4
aI3
aI6
aI8
aI7
aI3
aI2
aI0
aI1
aa(lp74
I3
aI5
aI4
aI3
aI6
aI8
aI7
aI3
aI1
aI2
aI0
aa(lp75
I3
aI5
aI4
aI3
aI6
aI8
aI3
aI2
aI7
aI0
aI1
aa(lp76
I4
aI6
aI5
aI4
aI7
aI9
aI8
aI4
aI2
aI3
aI9
aI0
aI1
aa(lp77
I4
aI6
aI5
aI4
aI7
aI9
aI8
aI4
aI2
aI3
aI0
aI1
aa(lp78
I3
aI5
aI4
aI3
aI6
aI8
aI7
aI3
aI2
aI0
aI1
aa(lp79
I4
aI6
aI5
aI4
aI7
aI8
aI9
aI3
aI6
aI4
aI2
aI8
aI0
aI1
aa(lp80
I7
aI3
aI5
aI4
aI3
aI6
aI8
aI2
aI3
aI7
aI0
aI1
aa(lp81
I4
aI6
aI5
aI4
aI7
aI9
aI8
aI4
aI2
aI3
aI0
aI5
aI0
aI1
aa(lp82
I3
aI5
aI4
aI3
aI8
aI7
aI3
aI1
aI2
aI0
aI6
aa(lp83
I4
aI6
aI5
aI4
aI7
aI9
aI9
aI8
aI4
aI2
aI3
aI0
aI1
aa(lp84
I4
aI6
aI5
aI4
aI7
aI9
aI8
aI4
aI3
aI2
aI3
aI0
aI1
aa(lp85
I4
aI6
aI5
aI4
aI9
aI7
aI9
aI8
aI4
aI2
aI3
aI0
aI1
aa(lp86
I3
aI5
aI4
aI3
aI6
aI8
aI7
aI3
aI2
aI0
aI1
aa(lp87
I8
aI4
aI6
aI5
aI4
aI7
aI9
aI3
aI4
aI2
aI8
aI0
aI1
aa(lp88
I3
aI5
aI4
aI3
aI6
aI8
aI3
aI2
aI7
aI0
aI1
aa(lp89
I4
aI6
aI5
aI4
aI7
aI9
aI8
aI4
aI2
aI6
aI3
aI0
aI0
aI1
aa(lp90
I3
aI4
aI3
aI6
aI8
aI7
aI3
aI1
aI2
aI5
aI8
aI0
aa(lp91
I3
aI5
aI4
aI3
aI6
aI8
aI7
aI3
aI2
aI0
aI1
aa(lp92
I4
aI6
aI5
aI1
aI7
aI9
aI8
aI2
aI3
aI0
aI1
aa(lp93
I3
aI5
aI4
aI3
aI8
aI7
aI3
aI1
aI2
aI0
aI6
aa(lp94
I4
aI6
aI5
aI4
aI7
aI9
aI8
aI2
aI3
aI0
aI1
aa(lp95
I4
aI6
aI5
aI4
aI7
aI9
aI8
aI8
aI2
aI3
aI0
aI1
aa(lp96
I4
aI6
aI7
aI5
aI4
aI7
aI9
aI8
aI4
aI1
aI2
aI3
aI0
aI1
aa(lp97
I4
aI6
aI5
aI4
aI7
aI9
aI8
aI8
aI4
aI2
aI3
aI0
aI1
aa(lp98
I3
aI5
aI4
aI3
aI6
aI6
aI8
aI7
aI3
aI2
aI0
aI1
aa(lp99
I3
aI0
aI4
aI3
aI6
aI8
aI7
aI3
aI1
aI2
aI5
aI0
aa(lp100
I1
aI4
aI6
aI5
aI4
aI7
aI9
aI8
aI4
aI2
aI3
aI0
aI1
aa(lp101
I3
aI0
aI5
aI4
aI3
aI6
aI7
aI3
aI1
aI2
aI8
aI0
aa(lp102
I4
aI5
aI4
aI6
aI8
aI7
aI4
aI2
aI5
aI3
aI0
aI1
aa(lp103
I4
aI6
aI5
aI7
aI7
aI9
aI8
aI4
aI2
aI3
aI0
aI1
aa(lp104
I8
aI4
aI5
aI6
aI8
aI7
aI4
aI2
aI3
aI0
aI1
aa(lp105
I4
aI6
aI5
aI4
aI7
aI9
aI8
aI4
aI0
aI2
aI3
aI0
aI1
aa(lp106
I3
aI4
aI3
aI6
aI8
aI7
aI3
aI1
aI2
aI5
aI0
aa(lp107
I3
aI5
aI4
aI3
aI8
aI7
aI3
aI1
aI2
aI0
aI6
aa(lp108
I3
aI5
aI4
aI3
aI6
aI8
aI3
aI2
aI7
aI0
aI1
aa(lp109
I8
aI4
aI6
aI5
aI4
aI7
aI9
aI8
aI8
aI4
aI2
aI3
aI0
aI1
aa(lp110
I3
aI5
aI4
aI3
aI6
aI7
aI3
aI1
aI2
aI8
aI0
aa(lp111
I3
aI5
aI4
aI3
aI4
aI6
aI8
aI2
aI7
aI0
aI1
aa(lp112
I4
aI6
aI5
aI4
aI8
aI7
aI9
aI8
aI4
aI2
aI3
aI0
aI1
aa(lp113
I3
aI5
aI4
aI3
aI6
aI8
aI7
aI3
aI2
aI0
aI1
aa(lp114
I3
aI5
aI4
aI3
aI6
aI8
aI7
aI3
aI4
aI1
aI2
aI0
aa(lp115
I3
aI5
aI4
aI3
aI6
aI8
aI7
aI3
aI1
aI2
aI0
aa(lp116
I6
aI5
aI4
aI7
aI9
aI8
aI4
aI2
aI3
aI0
aI1
aa(lp117
I3
aI5
aI4
aI6
aI8
aI7
aI4
aI3
aI1
aI2
aI0
aa(lp118
I4
aI6
aI5
aI4
aI6
aI7
aI9
aI4
aI8
aI4
aI2
aI3
aI0
aI1
aa(lp119
I3
aI5
aI4
aI3
aI6
aI8
aI3
aI2
aI7
aI0
aI1
aa(lp120
I3
aI4
aI3
aI6
aI8
aI7
aI3
aI1
aI4
aI2
aI5
aI0
aa(lp121
I3
aI5
aI4
aI3
aI6
aI8
aI7
aI3
aI2
aI0
aI1
aa(lp122
I3
aI4
aI3
aI6
aI8
aI7
aI3
aI1
aI2
aI5
aI0
aa(lp123
I2
aI6
aI3
aI2
aI6
aI1
aI2
aI0
aI5
aI6
aI4
aa(lp124
I3
aI5
aI4
aI3
aI6
aI8
aI7
aI7
aI3
aI2
aI6
aI0
aI1
aa(lp125
I3
aI5
aI4
aI3
aI6
aI8
aI3
aI2
aI7
aI0
aI1
aa(lp126
I3
aI5
aI4
aI6
aI8
aI7
aI3
aI2
aI0
aI1
aa(lp127
I4
aI6
aI5
aI4
aI7
aI9
aI8
aI4
aI2
aI3
aI0
aI1
aa(lp128
I4
aI6
aI5
aI4
aI7
aI9
aI8
aI4
aI2
aI3
aI0
aI1
aa(lp129
I3
aI5
aI4
aI3
aI6
aI7
aI3
aI1
aI2
aI8
aI0
aa(lp130
I4
aI5
aI4
aI6
aI8
aI7
aI4
aI2
aI3
aI0
aI1
aa(lp131
I3
aI5
aI4
aI3
aI6
aI6
aI8
aI3
aI2
aI7
aI0
aI1
aa(lp132
I3
aI5
aI4
aI3
aI6
aI8
aI7
aI3
aI2
aI0
aI1
aa(lp133
I3
aI5
aI4
aI3
aI6
aI8
aI7
aI3
aI1
aI2
aI0
aa(lp134
I5
aI4
aI3
aI6
aI8
aI7
aI3
aI2
aI0
aI1
aa(lp135
I3
aI5
aI4
aI3
aI6
aI8
aI7
aI3
aI2
aI0
aI1
aa(lp136
I4
aI1
aI6
aI5
aI4
aI7
aI9
aI8
aI4
aI2
aI3
aI0
aI1
aa(lp137
I4
aI6
aI5
aI7
aI4
aI7
aI9
aI8
aI4
aI2
aI3
aI0
aI1
aa(lp138
I4
aI6
aI5
aI4
aI7
aI9
aI8
aI2
aI3
aI0
aI1
aa(lp139
I3
aI5
aI4
aI3
aI6
aI8
aI7
aI3
aI1
aI2
aI0
aa(lp140
I3
aI4
aI3
aI3
aI6
aI8
aI7
aI3
aI1
aI2
aI5
aI0
aa(lp141
I4
aI5
aI4
aI6
aI8
aI7
aI4
aI2
aI3
aI0
aI1
aa(lp142
I3
aI5
aI4
aI3
aI6
aI8
aI3
aI2
aI0
aI7
aI0
aI1
aa(lp143
I3
aI5
aI4
aI3
aI8
aI7
aI3
aI1
aI2
aI0
aI6
aa(lp144
I4
aI8
aI6
aI5
aI4
aI7
aI9
aI3
aI2
aI8
aI0
aI1
aa(lp145
I4
aI6
aI5
aI4
aI7
aI9
aI8
aI0
aI4
aI2
aI3
aI0
aI1
aa(lp146
I4
aI6
aI5
aI8
aI4
aI7
aI9
aI3
aI4
aI2
aI8
aI0
aI1
aa(lp147
I4
aI6
aI5
aI4
aI7
aI4
aI9
aI8
aI4
aI2
aI3
aI0
aI1
aa(lp148
I4
aI6
aI5
aI4
aI7
aI9
aI8
aI4
aI2
aI3
aI8
aI0
aI1
aa(lp149
I4
aI6
aI5
aI1
aI4
aI7
aI9
aI8
aI4
aI2
aI3
aI0
aI1
aa(lp150
I3
aI5
aI4
aI3
aI8
aI7
aI3
aI1
aI2
aI0
aI6
aI6
aa(lp151
I3
aI5
aI4
aI3
aI6
aI8
aI7
aI3
aI1
aI2
aI0
aa(lp152
I4
aI6
aI2
aI5
aI4
aI7
aI9
aI8
aI2
aI3
aI0
aI1
aa(lp153
I3
aI5
aI4
aI3
aI6
aI8
aI7
aI3
aI1
aI2
aI0
aa(lp154
I3
aI4
aI3
aI0
aI8
aI7
aI6
aI3
aI1
aI2
aI5
aI6
aa(lp155
I4
aI6
aI5
aI4
aI7
aI9
aI8
aI4
aI2
aI3
aI0
aI1
aa(lp156
I3
aI5
aI4
aI3
aI6
aI8
aI7
aI3
aI2
aI0
aI1
aa(lp157
I4
aI6
aI5
aI7
aI9
aI8
aI4
aI2
aI3
aI0
aI1
aa(lp158
I4
aI6
aI5
aI4
aI7
aI9
aI5
aI8
aI4
aI2
aI3
aI0
aI1
aa(lp159
I3
aI5
aI4
aI3
aI6
aI8
aI7
aI3
aI2
aI0
aI1
aa(lp160
I4
aI6
aI5
aI4
aI7
aI9
aI8
aI4
aI2
aI3
aI0
aI2
aI1
aa(lp161
I4
aI6
aI5
aI4
aI7
aI7
aI9
aI8
aI4
aI2
aI3
aI0
aI1
aa(lp162
I4
aI6
aI5
aI4
aI7
aI9
aI8
aI1
aI4
aI2
aI3
aI0
aI1
aa(lp163
I4
aI5
aI6
aI5
aI7
aI9
aI8
aI4
aI2
aI3
aI0
aI1
aa(lp164
I3
aI4
aI3
aI5
aI7
aI6
aI3
aI2
aI0
aI1
aa(lp165
I4
aI6
aI5
aI4
aI7
aI8
aI9
aI8
aI4
aI2
aI3
aI0
aI1
aa(lp166
I4
aI6
aI1
aI7
aI5
aI4
aI7
aI9
aI8
aI4
aI2
aI3
aI0
aa(lp167
I4
aI6
aI5
aI4
aI7
aI9
aI8
aI4
aI2
aI0
aI3
aI0
aI1
aa(lp168
I3
aI5
aI4
aI3
aI6
aI8
aI7
aI3
aI1
aI2
aI0
aa(lp169
I4
aI6
aI5
aI4
aI7
aI9
aI8
aI4
aI7
aI2
aI3
aI0
aI1
aa(lp170
I3
aI5
aI4
aI3
aI8
aI7
aI3
aI1
aI2
aI0
aI6
aa(lp171
I4
aI5
aI4
aI6
aI6
aI8
aI7
aI4
aI2
aI3
aI0
aI1
aa(lp172
I3
aI5
aI4
aI1
aI3
aI6
aI8
aI7
aI3
aI1
aI2
aI0
aa(lp173
I3
aI4
aI3
aI6
aI8
aI7
aI3
aI1
aI2
aI5
aI0
aa(lp174
I4
aI6
aI5
aI4
aI7
aI9
aI9
aI8
aI4
aI2
aI3
aI0
aI1
aa(lp175
I3
aI5
aI4
aI3
aI6
aI8
aI7
aI3
aI1
aI7
aI2
aI0
aa(lp176
I3
aI5
aI4
aI3
aI6
aI8
aI3
aI2
aI7
aI0
aI1
aa(lp177
I4
aI6
aI5
aI4
aI8
aI7
aI9
aI8
aI4
aI2
aI9
aI3
aI0
aI1
aa(lp178
I3
aI5
aI4
aI3
aI6
aI3
aI7
aI3
aI1
aI2
aI8
aI0
aa(lp179
I9
aI4
aI6
aI5
aI4
aI7
aI9
aI8
aI2
aI3
aI0
aI1
aa(lp180
I3
aI3
aI5
aI7
aI2
aI3
aI1
aI6
aI0
aI4
aI0
aa(lp181
I4
aI1
aI6
aI5
aI4
aI7
aI9
aI8
aI4
aI2
aI3
aI0
aI1
aa(lp182
I4
aI5
aI3
aI4
aI6
aI8
aI7
aI4
aI8
aI2
aI3
aI0
aI1
aa(lp183
I4
aI6
aI5
aI4
aI7
aI9
aI8
aI4
aI2
aI3
aI0
aI4
aI1
aa(lp184
I3
aI5
aI4
aI3
aI6
aI8
aI7
aI3
aI2
aI0
aI3
aI1
aa(lp185
I3
aI5
aI4
aI3
aI6
aI8
aI7
aI3
aI1
aI2
aI0
aa(lp186
I3
aI5
aI4
aI3
aI6
aI8
aI7
aI3
aI1
aI2
aI0
aa(lp187
I4
aI6
aI5
aI4
aI4
aI7
aI9
aI8
aI4
aI2
aI3
aI0
aI1
aa(lp188
I3
aI5
aI4
aI3
aI6
aI8
aI7
aI3
aI2
aI0
aI1
aa(lp189
I7
aI3
aI5
aI4
aI6
aI8
aI7
aI3
aI2
aI0
aI1
aa(lp190
I3
aI5
aI4
aI3
aI6
aI7
aI3
aI2
aI0
aI1
aa(lp191
I4
aI6
aI5
aI4
aI7
aI9
aI8
aI4
aI2
aI3
aI0
aI1
aa(lp192
I4
aI6
aI5
aI4
aI7
aI9
aI8
aI4
aI4
aI2
aI3
aI0
aI1
aa(lp193
I3
aI5
aI4
aI3
aI6
aI8
aI3
aI2
aI7
aI0
aI1
aa(lp194
I4
aI5
aI4
aI6
aI8
aI7
aI4
aI2
aI3
aI0
aI1
aa(lp195
I4
aI6
aI5
aI4
aI7
aI9
aI8
aI4
aI2
aI3
aI0
aI1
aa(lp196
I3
aI4
aI3
aI7
aI2
aI3
aI1
aI6
aI0
aI5
aa(lp197
I4
aI5
aI6
aI5
aI4
aI7
aI9
aI8
aI4
aI2
aI3
aI0
aI1
aa(lp198
I4
aI6
aI5
aI4
aI7
aI9
aI8
aI4
aI2
aI3
aI0
aI4
aI1
aa(lp199
I3
aI5
aI4
aI3
aI6
aI8
aI7
aI3
aI1
aI2
aI0
aa(lp200
I4
aI6
aI5
aI7
aI9
aI8
aI4
aI2
aI3
aI0
aI1
aa(lp201
I4
aI6
aI5
aI4
aI7
aI9
aI8
aI4
aI2
aI7
aI6
aI3
aI0
aI1
aa(lp202
I3
aI5
aI4
aI3
aI6
aI8
aI7
aI3
aI1
aI2
aI0
aa(lp203
I3
aI5
aI4
aI3
aI6
aI5
aI7
aI3
aI1
aI2
aI8
aI0
aa(lp204
I3
aI5
aI4
aI3
aI6
aI8
aI7
aI3
aI2
aI0
aI1
aa(lp205
I4
aI6
aI5
aI4
aI7
aI9
aI8
aI3
aI4
aI2
aI3
aI0
aI1
aa(lp206
I3
aI5
aI4
aI3
aI3
aI6
aI8
aI7
aI3
aI2
aI0
aI1
aa(lp207
I4
aI6
aI5
aI4
aI7
aI9
aI8
aI4
aI2
aI2
aI3
aI0
aI1
aa(lp208
I3
aI5
aI4
aI3
aI0
aI6
aI8
aI7
aI3
aI1
aI2
aI0
aa(lp209
I3
aI4
aI3
aI5
aI0
aI6
aI8
aI7
aI3
aI1
aI2
aI5
aI6
aa(lp210
I4
aI6
aI5
aI4
aI7
aI9
aI8
aI4
aI2
aI3
aI0
aI1
aa(lp211
I3
aI5
aI4
aI3
aI6
aI8
aI7
aI3
aI2
aI7
aI0
aI1
aa(lp212
I4
aI6
aI5
aI4
aI7
aI9
aI8
aI4
aI9
aI2
aI3
aI0
aI1
aa(lp213
I3
aI4
aI3
aI5
aI7
aI6
aI3
aI2
aI0
aI1
aa(lp214
I4
aI6
aI5
aI4
aI7
aI9
aI8
aI4
aI2
aI3
aI1
aI0
aI1
aa(lp215
I3
aI5
aI4
aI3
aI6
aI7
aI3
aI1
aI2
aI8
aI0
aa(lp216
I7
aI4
aI6
aI5
aI4
aI7
aI9
aI8
aI4
aI2
aI3
aI0
aI1
aa(lp217
I0
aI4
aI6
aI5
aI4
aI7
aI9
aI8
aI4
aI2
aI3
aI0
aI1
aa(lp218
I4
aI6
aI5
aI4
aI7
aI9
aI8
aI3
aI4
aI2
aI8
aI0
aI1
aa(lp219
I3
aI5
aI4
aI3
aI6
aI8
aI7
aI3
aI1
aI8
aI2
aI0
aa(lp220
I3
aI5
aI4
aI1
aI3
aI6
aI8
aI7
aI3
aI1
aI2
aI0
aa(lp221
I4
aI6
aI5
aI4
aI9
aI8
aI4
aI2
aI7
aI3
aI0
aI1
aa(lp222
I3
aI5
aI4
aI3
aI6
aI8
aI7
aI3
aI2
aI0
aI1
aa(lp223
I3
aI7
aI5
aI4
aI1
aI3
aI6
aI8
aI7
aI3
aI2
aI0
aI1
aa(lp224
I4
aI6
aI5
aI4
aI7
aI9
aI8
aI3
aI2
aI3
aI0
aI1
aa(lp225
I4
aI6
aI5
aI4
aI1
aI7
aI9
aI8
aI4
aI2
aI3
aI0
aI1
aa(lp226
I3
aI5
aI4
aI3
aI6
aI8
aI7
aI3
aI1
aI2
aI0
aa(lp227
I4
aI6
aI5
aI4
aI7
aI9
aI8
aI4
aI2
aI3
aI0
aI1
aa(lp228
I4
aI6
aI5
aI4
aI0
aI7
aI9
aI8
aI4
aI2
aI3
aI0
aI7
aI1
aa(lp229
I3
aI5
aI4
aI3
aI6
aI8
aI7
aI3
aI2
aI0
aI1
aa(lp230
I3
aI4
aI6
aI8
aI7
aI3
aI1
aI2
aI5
aI0
aa(lp231
I6
aI4
aI5
aI4
aI7
aI9
aI8
aI4
aI2
aI3
aI0
aI1
aa(lp232
I3
aI4
aI5
aI3
aI6
aI8
aI7
aI3
aI1
aI2
aI5
aI0
aa(lp233
I4
aI8
aI6
aI5
aI4
aI7
aI9
aI8
aI8
aI4
aI2
aI3
aI0
aI1
aa(lp234
I3
aI5
aI4
aI3
aI6
aI8
aI7
aI3
aI1
aI2
aI0
aa(lp235
I3
aI5
aI4
aI3
aI6
aI7
aI3
aI1
aI2
aI8
aI0
aa(lp236
I3
aI5
aI4
aI8
aI7
aI3
aI1
aI2
aI1
aI0
aI6
aa(lp237
I6
aI5
aI4
aI0
aI4
aI7
aI9
aI8
aI4
aI2
aI3
aI0
aI1
aa(lp238
I3
aI4
aI3
aI6
aI8
aI2
aI7
aI3
aI1
aI7
aI5
aI0
aa(lp239
I3
aI4
aI3
aI6
aI8
aI7
aI1
aI2
aI8
aI5
aI0
aa(lp240
I4
aI6
aI5
aI4
aI7
aI2
aI9
aI8
aI4
aI1
aI3
aI0
aI9
aI0
aa(lp241
I3
aI5
aI4
aI3
aI6
aI7
aI3
aI1
aI2
aI8
aI0
aa(lp242
I4
aI6
aI9
aI8
aI5
aI4
aI7
aI9
aI8
aI4
aI2
aI3
aI0
aI1
aa(lp243
I3
aI5
aI4
aI3
aI6
aI8
aI7
aI3
aI1
aI2
aI0
aa(lp244
I4
aI6
aI5
aI4
aI7
aI9
aI8
aI4
aI2
aI8
aI3
aI0
aI1
aa(lp245
I4
aI4
aI6
aI5
aI4
aI7
aI9
aI8
aI4
aI2
aI3
aI0
aI1
aa(lp246
I3
aI5
aI4
aI3
aI6
aI6
aI8
aI7
aI1
aI2
aI0
aa(lp247
I3
aI4
aI3
aI5
aI2
aI3
aI1
aI6
aI7
aI0
aa(lp248
I4
aI6
aI5
aI4
aI7
aI9
aI8
aI4
aI2
aI3
aI9
aI0
aI1
aa(lp249
I4
aI6
aI5
aI7
aI9
aI8
aI4
aI2
aI3
aI0
aI1
aa(lp250
I5
aI6
aI8
aI7
aI4
aI2
aI3
aI0
aI1
aa(lp251
I2
aI3
aI2
aI5
aI7
aI6
aI2
aI0
aI1
aI4
aa(lp252
I4
aI5
aI0
aI6
aI5
aI4
aI7
aI9
aI8
aI4
aI2
aI3
aI0
aI1
aa(lp253
I5
aI4
aI6
aI8
aI7
aI3
aI2
aI0
aI1
aa(lp254
I2
aI4
aI3
aI2
aI5
aI7
aI6
aI2
aI1
aI0
aa(lp255
I0
aI4
aI6
aI5
aI4
aI7
aI9
aI8
aI2
aI3
aI0
aI1
aa(lp256
I4
aI5
aI4
aI4
aI6
aI8
aI7
aI4
aI2
aI3
aI0
aI1
aa(lp257
I4
aI5
aI8
aI4
aI6
aI8
aI7
aI4
aI2
aI3
aI0
aI1
aa(lp258
I5
aI3
aI5
aI4
aI3
aI6
aI8
aI7
aI3
aI2
aI0
aI1
aa(lp259
I8
aI4
aI6
aI5
aI4
aI7
aI9
aI8
aI4
aI2
aI3
aI0
aI1
aa(lp260
I4
aI6
aI5
aI5
aI4
aI7
aI9
aI8
aI4
aI2
aI3
aI0
aI1
aa(lp261
I4
aI6
aI5
aI4
aI7
aI9
aI8
aI4
aI2
aI3
aI0
aI1
aa(lp262
I3
aI5
aI4
aI3
aI6
aI7
aI3
aI1
aI2
aI8
aI0
aa(lp263
I3
aI5
aI4
aI3
aI6
aI8
aI3
aI2
aI7
aI0
aI1
aa(lp264
I2
aI6
aI5
aI4
aI7
aI9
aI8
aI4
aI2
aI3
aI0
aI1
aa(lp265
I4
aI6
aI5
aI4
aI1
aI9
aI7
aI9
aI8
aI4
aI2
aI3
aI0
aI7
aa(lp266
I3
aI5
aI4
aI3
aI6
aI7
aI3
aI1
aI2
aI6
aI8
aI0
aa(lp267
I3
aI5
aI4
aI3
aI6
aI7
aI3
aI1
aI2
aI8
aI0
aa(lp268
I4
aI5
aI4
aI6
aI8
aI7
aI4
aI2
aI3
aI0
aI1
aa(lp269
I4
aI6
aI5
aI4
aI7
aI9
aI8
aI2
aI4
aI4
aI3
aI0
aI1
aa(lp270
I3
aI5
aI4
aI3
aI6
aI8
aI3
aI2
aI7
aI0
aI1
aa(lp271
I3
aI5
aI4
aI3
aI6
aI8
aI7
aI3
aI1
aI2
aI0
aa(lp272
I3
aI5
aI4
aI3
aI6
aI8
aI7
aI3
aI2
aI0
aI1
aa(lp273
I6
aI5
aI4
aI7
aI9
aI5
aI8
aI4
aI2
aI3
aI4
aI0
aI1
aa(lp274
I4
aI6
aI5
aI2
aI4
aI7
aI9
aI8
aI4
aI2
aI3
aI0
aI1
aa(lp275
I3
aI5
aI4
aI3
aI6
aI8
aI3
aI2
aI7
aI0
aI1
aa(lp276
I4
aI6
aI2
aI5
aI4
aI9
aI8
aI7
aI4
aI2
aI3
aI0
aI1
aa(lp277
I4
aI8
aI6
aI5
aI4
aI7
aI9
aI8
aI4
aI2
aI3
aI0
aI1
aa(lp278
I4
aI6
aI5
aI4
aI7
aI9
aI8
aI4
aI2
aI3
aI0
aI4
aI1
aa(lp279
I2
aI7
aI4
aI3
aI2
aI5
aI7
aI6
aI2
aI1
aI0
aa(lp280
I3
aI5
aI4
aI3
aI6
aI2
aI8
aI3
aI2
aI7
aI0
aI1
aa(lp281
I4
aI6
aI5
aI4
aI7
aI9
aI8
aI4
aI2
aI3
aI0
aI1
aa(lp282
I3
aI5
aI4
aI3
aI6
aI8
aI6
aI7
aI3
aI2
aI0
aI1
aa(lp283
I4
aI6
aI5
aI4
aI1
aI7
aI9
aI8
aI4
aI2
aI3
aI0
aI7
aa(lp284
I3
aI5
aI4
aI3
aI6
aI8
aI4
aI3
aI2
aI7
aI0
aI1
aa(lp285
I4
aI6
aI5
aI4
aI7
aI9
aI8
aI2
aI4
aI2
aI3
aI0
aI1
aa(lp286
I2
aI4
aI3
aI2
aI5
aI1
aI7
aI2
aI1
aI6
aI0
aa(lp287
I3
aI5
aI5
aI4
aI3
aI6
aI8
aI7
aI3
aI1
aI2
aI0
aa(lp288
I2
aI4
aI6
aI5
aI4
aI7
aI9
aI8
aI4
aI2
aI3
aI0
aI7
aI1
aa(lp289
I3
aI5
aI4
aI3
aI6
aI8
aI7
aI3
aI2
aI0
aI1
aa(lp290
I4
aI6
aI5
aI7
aI9
aI8
aI4
aI2
aI3
aI0
aI1
aa(lp291
I3
aI4
aI3
aI4
aI0
aI6
aI3
aI1
aI5
aI2
aI7
aI5
aa(lp292
I3
aI5
aI4
aI1
aI3
aI6
aI7
aI3
aI1
aI2
aI8
aI0
aa(lp293
I3
aI4
aI5
aI7
aI6
aI3
aI2
aI0
aI1
aa(lp294
I3
aI5
aI4
aI3
aI6
aI7
aI3
aI1
aI2
aI8
aI0
aa(lp295
I4
aI6
aI5
aI4
aI7
aI9
aI8
aI4
aI2
aI3
aI0
aI1
aa(lp296
I3
aI2
aI4
aI3
aI5
aI7
aI6
aI3
aI1
aI2
aI0
aa(lp297
I3
aI5
aI4
aI3
aI6
aI7
aI3
aI1
aI2
aI8
aI0
aa(lp298
I4
aI6
aI5
aI4
aI7
aI9
aI8
aI4
aI2
aI3
aI0
aI1
aa(lp299
I0
aI3
aI5
aI4
aI3
aI6
aI8
aI3
aI2
aI7
aI0
aI1
aa(lp300
I4
aI6
aI5
aI4
aI7
aI4
aI9
aI8
aI4
aI2
aI4
aI3
aI0
aI1
aa(lp301
I2
aI1
aI0
aI0
aI3
aa(lp302
I2
aI0
aI1
aI0
aI3
aa(lp303
I3
aI2
aI0
aI1
aI4
aa(lp304
I1
aI0
aI2
aa(lp305
I1
aI0
aa(lp306
I1
aI3
aI2
aI0
aI4
aa(lp307
I2
aI1
aI0
aI0
aI3
aa(lp308
I1
aI0
aI2
aa(lp309
I3
aI0
aI2
aI1
aI4
aa(lp310
I1
aI0
aa(lp311
I0
aI1
aa(lp312
I3
aI2
aI0
aI4
aI1
aa(lp313
I2
aI1
aI0
aI3
aa(lp314
I4
aI3
aI1
aI0
aI2
aI4
aa(lp315
I1
aI2
aI0
aI2
aa(lp316
I1
aI0
aI2
aa(lp317
I1
aI0
aI2
aa(lp318
I0
aI1
aI3
aI2
aI0
aI4
aa(lp319
I1
aI0
aI2
aa(lp320
I1
aI0
aI2
aa(lp321
I2
aI1
aI0
aa(lp322
I3
aI2
aI1
aI0
aI4
aa(lp323
I3
aI0
aI2
aI4
aI1
aa(lp324
I1
aI0
aa(lp325
I3
aI0
aI2
aI1
aa(lp326
I0
aI1
aI2
aa(lp327
I3
aI2
aI0
aI1
aI4
aa(lp328
I2
aI1
aI0
aI3
aa(lp329
I2
aI1
aI0
aI3
aa(lp330
I0
aa(lp331
I1
aI0
aI2
aa(lp332
I3
aI2
aI0
aI1
aI0
aI3
aa(lp333
I2
aI1
aI0
aI3
aa(lp334
I2
aI0
aI1
aI3
aI3
aa(lp335
I2
aI1
aI0
aI3
aa(lp336
I3
aI2
aI1
aI0
aI0
aa(lp337
I2
aI1
aI0
aI3
aI3
aa(lp338
I1
aI0
aI2
aa(lp339
I2
aI1
aI0
aI2
aI3
aa(lp340
I1
aI2
aI0
aI2
aa(lp341
I1
aI0
aI2
aa(lp342
I3
aI2
aI0
aI1
aa(lp343
I3
aI2
aI1
aI0
aI4
aa(lp344
I3
aI2
aI0
aI4
aI1
aa(lp345
I0
aI4
aI2
aI3
aI1
aI5
aa(lp346
I2
aI1
aI2
aI0
aI3
aa(lp347
I1
aI3
aI2
aI0
aI4
aa(lp348
I1
aI0
aa(lp349
I2
aI1
aI0
aI3
aa(lp350
I1
aI0
aI3
aI4
aI0
aI2
aI5
aa(lp351
I3
aI2
aI1
aI0
aI4
aa(lp352
I1
aI2
aI0
aI3
aa(lp353
I2
aI1
aI0
aI3
aI3
aa(lp354
I3
aI0
aI2
aI1
aI4
aa(lp355
I2
aI1
aI3
aI0
aa(lp356
I0
aI1
aa(lp357
I2
aI1
aI0
aa(lp358
I2
aI1
aI0
aa(lp359
I4
aI3
aI1
aI0
aI2
aa(lp360
I2
aI1
aI1
aI0
aa(lp361
I3
aI1
aI0
aI2
aI4
aa(lp362
I1
aI0
aI2
aa(lp363
I2
aI0
aI1
aI0
aI3
aa(lp364
I1
aI2
aI1
aI0
aI3
aa(lp365
I2
aI2
aI1
aI0
aI3
aa(lp366
I3
aI2
aI1
aI0
aI4
aa(lp367
I2
aI1
aI1
aI0
aa(lp368
I2
aI1
aI0
aa(lp369
I2
aI0
aI1
aI3
aa(lp370
I1
aI0
aI2
aa(lp371
I1
aI0
aI2
aa(lp372
I3
aI2
aI1
aI1
aI0
aI4
aa(lp373
I1
aI0
aI2
aa(lp374
I1
aI0
aI2
aa(lp375
I2
aI3
aI0
aI1
aa(lp376
I3
aI2
aI1
aI0
aI4
aa(lp377
I2
aI1
aI0
aa(lp378
I1
aI0
aI0
aI2
aa(lp379
I1
aI0
aa(lp380
I1
aI0
aI2
aa(lp381
I2
aI3
aI1
aI0
aI3
aa(lp382
I1
aI0
aI4
aI2
aI3
aI5
aa(lp383
I2
aI1
aI3
aI0
aI3
aa(lp384
I1
aI3
aI2
aI0
aI4
aa(lp385
I2
aI0
aI1
aI3
aa(lp386
I2
aI1
aI0
aa(lp387
I1
aI0
aI2
aa(lp388
I2
aI1
aI1
aI0
aI3
aa(lp389
I2
aI1
aI0
aa(lp390
I2
aI0
aI1
aI3
aa(lp391
I2
aI2
aI1
aI0
aI3
aa(lp392
I1
aI0
aI2
aa(lp393
I2
aI1
aI0
aI3
aa(lp394
I1
aI0
aI2
aa(lp395
I3
aI2
aI4
aI1
aI0
aI4
aa(lp396
I0
aI1
aI2
aa(lp397
I2
aI0
aI1
aa(lp398
I1
aI1
aI0
aa(lp399
I4
aI3
aI2
aI2
aI0
aI1
aa(lp400
I2
aI1
aI0
aI3
aa(lp401
I1
aI0
aI2
aa(lp402
I3
aI2
aI1
aI0
aI3
aa(lp403
I1
aI0
aI0
aa(lp404
I2
aI0
aI1
aI0
aa(lp405
I2
aI1
aI0
aI3
aa(lp406
I2
aI1
aI2
aI0
aI3
aa(lp407
I1
aI0
aI2
aa(lp408
I4
aI3
aI2
aI0
aI1
aa(lp409
I2
aI1
aI0
aa(lp410
I4
aI3
aI1
aI0
aI2
aI5
aa(lp411
I1
aI0
aI2
aa(lp412
I3
aI2
aI1
aI0
aI4
aa(lp413
I2
aI1
aI0
aI3
aa(lp414
I0
aI3
aI2
aI1
aI4
aa(lp415
I1
aI0
aI2
aa(lp416
I0
aI3
aI2
aI1
aI4
aa(lp417
I0
aI2
aI1
aI3
aa(lp418
I1
aI1
aI2
aI0
aI3
aa(lp419
I3
aI2
aI1
aI0
aI3
aa(lp420
I2
aI1
aI0
aa(lp421
I2
aI0
aI1
aI3
aa(lp422
I2
aI3
aI1
aI0
aa(lp423
I1
aI0
aa(lp424
I3
aI2
aI0
aI1
aI4
aa(lp425
I3
aI1
aI2
aI0
aI4
aa(lp426
I2
aI1
aI0
aI3
aa(lp427
I2
aI1
aI0
aI0
aI2
aa(lp428
I2
aI0
aI1
aI0
aI3
aa(lp429
I0
aI1
aa(lp430
I3
aI2
aI0
aI1
aI4
aa(lp431
I3
aI2
aI2
aI1
aI0
aI1
aI4
aa(lp432
I2
aI0
aI1
aI3
aa(lp433
I2
aI3
aI0
aI1
aI4
aa(lp434
I2
aI1
aI1
aI0
aI3
aa(lp435
I3
aI2
aI0
aI1
aI4
aa(lp436
I1
aI0
aI0
aI2
aa(lp437
I4
aI3
aI2
aI0
aI1
aa(lp438
I1
aI0
aI2
aa(lp439
I1
aI0
aa(lp440
I2
aI1
aI3
aI0
aI3
aa(lp441
I3
aI1
aI0
aI2
aI4
aa(lp442
I1
aI0
aa(lp443
I2
aI1
aI0
aI3
aa(lp444
I2
aI1
aI0
aa(lp445
I3
aI0
aI2
aI1
aI4
aa(lp446
I1
aI0
aI2
aa(lp447
I2
aI0
aI4
aI3
aI1
aI5
aa(lp448
I1
aI0
aI2
aa(lp449
I1
aI0
aI2
aa(lp450
I2
aI1
aI0
aa(lp451
I1
aI0
aI2
aa(lp452
I1
aI2
aI0
aI3
aa(lp453
I1
aI0
aI2
aa(lp454
I2
aI3
aI1
aI0
aI3
aa(lp455
I3
aI2
aI0
aI1
aI4
aa(lp456
I2
aI1
aI3
aI0
aa(lp457
I2
aI3
aI1
aI0
aI3
aa(lp458
I1
aI0
aI2
aa(lp459
I1
aI0
aI2
aa(lp460
I2
aI0
aI1
aI3
aa(lp461
I2
aI2
aI1
aI0
aI3
aa(lp462
I1
aI3
aI2
aI0
aI3
aa(lp463
I2
aI0
aI1
aI3
aa(lp464
I3
aI2
aI0
aI1
aI4
aa(lp465
I2
aI3
aI0
aI1
aa(lp466
I1
aI0
aI2
aa(lp467
I1
aI0
aI2
aa(lp468
I3
aI0
aI1
aI2
aI4
aa(lp469
I3
aI2
aI0
aI1
aI4
aa(lp470
I1
aI0
aa(lp471
I1
aI1
aI0
aI2
aa(lp472
I2
aI1
aI2
aI0
aI3
aa(lp473
I2
aI1
aI2
aI0
aI3
aa(lp474
I3
aI1
aI2
aI0
aI4
aa(lp475
I2
aI0
aI4
aI3
aI5
aI1
aI2
aa(lp476
I1
aI0
aI2
aa(lp477
I1
aI0
aI2
aa(lp478
I2
aI1
aI0
aI3
aa(lp479
I1
aI0
aI2
aa(lp480
I2
aI3
aI0
aI1
aI4
aa(lp481
I0
aI2
aI1
aI3
aa(lp482
I1
aI0
aI2
aa(lp483
I3
aI0
aI2
aI1
aI4
aa(lp484
I3
aI2
aI0
aI1
aI4
aa(lp485
I1
aI0
aI2
aa(lp486
I0
aI1
aa(lp487
I0
aI1
aa(lp488
I3
aI2
aI1
aI0
aI4
aa(lp489
I4
aI3
aI2
aI0
aI1
aa(lp490
I3
aI2
aI0
aI1
aa(lp491
I1
aI0
aI2
aa(lp492
I3
aI2
aI1
aI0
aI4
aa(lp493
I1
aI0
aI2
aa(lp494
I0
aa(lp495
I2
aI1
aI1
aI0
aI3
aa(lp496
I0
aI3
aI2
aI1
aI1
aI4
aa(lp497
I1
aI0
aI2
aa(lp498
I2
aI1
aI0
aa(lp499
I2
aI1
aI0
aI0
aI3
aa(lp500
I2
aI1
aI0
aa(lp501
I2
aI2
aI1
aI0
aI3
aa(lp502
I2
aI1
aI2
aI0
aI3
aa(lp503
I3
aI1
aI0
aI2
aI4
aa(lp504
I2
aI3
aI1
aI0
aI3
aa(lp505
I2
aI1
aI0
aa(lp506
I1
aI0
aI2
aa(lp507
I2
aI1
aI1
aI0
aI3
aa(lp508
I2
aI3
aI0
aI1
aa(lp509
I1
aI0
aI2
aa(lp510
I2
aI1
aI0
aa(lp511
I3
aI2
aI1
aI0
aI4
aa(lp512
I1
aI0
aI2
aa(lp513
I2
aI1
aI0
aI1
aI3
aa(lp514
I2
aI1
aI1
aI0
aI3
aa(lp515
I1
aI0
aI2
aa(lp516
I3
aI4
aI2
aI1
aI0
aI4
aa(lp517
I2
aI0
aI1
aI3
aa(lp518
I2
aI1
aI3
aI0
aa(lp519
I0
aI1
aI0
aI2
aa(lp520
I2
aI1
aI0
aa(lp521
I1
aI0
aI2
aa(lp522
I0
aI1
aa(lp523
I4
aI3
aI1
aI0
aI2
aI5
aa(lp524
I2
aI1
aI3
aI0
aa(lp525
I2
aI1
aI3
aI0
aI3
aa(lp526
I2
aI0
aI1
aI3
aa(lp527
I1
aI0
aI2
aa(lp528
I1
aI0
aI2
aa(lp529
I3
aI2
aI1
aI0
aI4
aa(lp530
I4
aI0
aI3
aI2
aI1
aI5
aa(lp531
I1
aI0
aI2
aa(lp532
I3
aI2
aI0
aI1
aa(lp533
I1
aI0
aI2
aa(lp534
I1
aI2
aI4
aI0
aI3
aa(lp535
I1
aI0
aI2
aa(lp536
I2
aI0
aI1
aI3
aa(lp537
I3
aI2
aI0
aI1
aI4
aa(lp538
I0
aI1
aa(lp539
I1
aI0
aI2
aI2
aa(lp540
I1
aI0
aI2
aa(lp541
I2
aI1
aI0
aa(lp542
I1
aI0
aI2
aa(lp543
I2
aI4
aI0
aI3
aI1
aI5
aa(lp544
I2
aI0
aI1
aI0
aa(lp545
I3
aI2
aI0
aI1
aI4
aa(lp546
I2
aI1
aI0
aa(lp547
I1
aI0
aI2
aa(lp548
I2
aI1
aI0
aI3
aa(lp549
I2
aI1
aI0
aI3
aa(lp550
I2
aI3
aI0
aI1
aa(lp551
I3
aI0
aI2
aI1
aI4
aa(lp552
I3
aI2
aI0
aI1
aa(lp553
I2
aI1
aI0
aI1
aI3
aa(lp554
I2
aI1
aI0
aI3
aa(lp555
I3
aI2
aI1
aI0
aI3
aa(lp556
I3
aI2
aI1
aI0
aa(lp557
I3
aI2
aI1
aI0
aI4
aa(lp558
I3
aI2
aI1
aI0
aI1
aI4
aa(lp559
I1
aI3
aI2
aI0
aI4
aa(lp560
I1
aI0
aI1
aa(lp561
I3
aI2
aI0
aI1
aI4
aa(lp562
I3
aI0
aI2
aI1
aI4
aa(lp563
I1
aI0
aI2
aa(lp564
I2
aI1
aI0
aI3
aa(lp565
I3
aI0
aI2
aI1
aI4
aa(lp566
I2
aI2
aI0
aI1
aI0
aI3
aa(lp567
I1
aI0
aI2
aa(lp568
I3
aI2
aI1
aI0
aI4
aa(lp569
I2
aI1
aI3
aI0
aI3
aa(lp570
I3
aI2
aI0
aI1
aI4
aa(lp571
I2
aI1
aI0
aa(lp572
I3
aI0
aI2
aI4
aI1
aI4
aa(lp573
I1
aI0
aI2
aa(lp574
I0
aI1
aI0
aI2
aa(lp575
I1
aI3
aI2
aI0
aI4
aa(lp576
I2
aI1
aI0
aI3
aa(lp577
I2
aI0
aI1
aI3
aa(lp578
I1
aI0
aa(lp579
I3
aI2
aI1
aI0
aa(lp580
I2
aI1
aI0
aI3
aa(lp581
I2
aI1
aI0
aI3
aa(lp582
I2
aI1
aI0
aI3
aa(lp583
I2
aI1
aI0
aa(lp584
I1
aI0
aI2
aa(lp585
I2
aI2
aI1
aI0
aI3
aa(lp586
I1
aI0
aI2
aa(lp587
I2
aI1
aI0
aI2
aI3
aa(lp588
I2
aI1
aI0
aa(lp589
I2
aI1
aI0
aI3
aI3
aa(lp590
I3
aI2
aI0
aI1
aI4
aa(lp591
I1
aI0
aI2
aa(lp592
I0
aI3
aI2
aI1
aI4
aa(lp593
I1
aI0
aI2
aa(lp594
I2
aI1
aI0
aI3
aa(lp595
I1
aI0
aI2
aa(lp596
I0
aI4
aI3
aI2
aI1
aI5
aa(lp597
I0
aI2
aI1
aI0
aI3
aa(lp598
I3
aI1
aI2
aI0
aI4
aa(lp599
I2
aI3
aI0
aI1
aI4
aa(lp600
I2
aI1
aI0
aa(lp601
I1
aI2
aI0
aa(lp602
I0
aa(lp603
I2
aI1
aI0
aa(lp604
I0
aa(lp605
I2
aI1
aI0
aa(lp606
I0
aI1
aI0
aa(lp607
I1
aI0
aa(lp608
I1
aI0
aa(lp609
I0
aa(lp610
I0
aa(lp611
I0
aI2
aI1
aa(lp612
I0
aI2
aI1
aa(lp613
I2
aI1
aI0
aa(lp614
I0
aa(lp615
I1
aI2
aI0
aa(lp616
I2
aI1
aI0
aa(lp617
I1
aI0
aI0
aa(lp618
I0
aa(lp619
I1
aI0
aa(lp620
I0
aI1
aa(lp621
I0
aa(lp622
I0
aa(lp623
I1
aI2
aI0
aa(lp624
I0
aa(lp625
I0
aa(lp626
I0
aa(lp627
I2
aI1
aI0
aa(lp628
I0
aa(lp629
I0
aa(lp630
I0
aa(lp631
I1
aI1
aI2
aI0
aa(lp632
I0
aa(lp633
I0
aa(lp634
I0
aI0
aa(lp635
I0
aI0
aa(lp636
I2
aI1
aI0
aa(lp637
I0
aa(lp638
I2
aI0
aI1
aa(lp639
I1
aI0
aa(lp640
I0
aI1
aa(lp641
I0
aI1
aa(lp642
I0
aa(lp643
I0
aa(lp644
I2
aI3
aI1
aI0
aa(lp645
I1
aI0
aa(lp646
I0
aa(lp647
I0
aa(lp648
I0
aI1
aa(lp649
I0
aa(lp650
I1
aI1
aI0
aa(lp651
I0
aa(lp652
I2
aI1
aI0
aa(lp653
I0
aa(lp654
I1
aI0
aa(lp655
I1
aI0
aa(lp656
I1
aI2
aI0
aa(lp657
I1
aI2
aI0
aa(lp658
I0
aa(lp659
I1
aI2
aI3
aI0
aa(lp660
I3
aI1
aI2
aI0
aa(lp661
I2
aI1
aI0
aa(lp662
I1
aI2
aI0
aa(lp663
I0
aa(lp664
I0
aa(lp665
I1
aI0
aa(lp666
I0
aa(lp667
I0
aI1
aa(lp668
I0
aI1
aa(lp669
I0
aa(lp670
I1
aI0
aI0
aa(lp671
I1
aI1
aI0
aa(lp672
I0
aa(lp673
I1
aI0
aa(lp674
I1
aI2
aI0
aa(lp675
I0
aI2
aI1
aa(lp676
I0
aa(lp677
I0
aa(lp678
I0
aa(lp679
I2
aI1
aI0
aa(lp680
I1
aI1
aI0
aa(lp681
I1
aI0
aa(lp682
I0
aa(lp683
I0
aa(lp684
I0
aI2
aI1
aI0
aa(lp685
I0
aa(lp686
I0
aa(lp687
I0
aa(lp688
I2
aI1
aI0
aa(lp689
I0
aa(lp690
I1
aI0
aa(lp691
I0
aI1
aI2
aa(lp692
I0
aa(lp693
I1
aI0
aI2
aI0
aa(lp694
I1
aI1
aI0
aa(lp695
I1
aI0
aa(lp696
I1
aI0
aa(lp697
I0
aa(lp698
I1
aI2
aI0
aa(lp699
I2
aI0
aI1
aa(lp700
I1
aI0
aa(lp701
I2
aI1
aI0
aa(lp702
I0
aa(lp703
I2
aI1
aI0
aa(lp704
I2
aI1
aI0
aa(lp705
I1
aI2
aI0
aa(lp706
I1
aI0
aa(lp707
I1
aI0
aa(lp708
I1
aI2
aI0
aI0
aa(lp709
I0
aa(lp710
I0
aa(lp711
I0
aI2
aI2
aI3
aI1
aa(lp712
I0
aa(lp713
I2
aI3
aI1
aI0
aa(lp714
I2
aI1
aI0
aa(lp715
I2
aI1
aI0
aa(lp716
I0
aI1
aa(lp717
I1
aI0
aI1
aa(lp718
I0
aI2
aI1
aa(lp719
I2
aI1
aI0
aa(lp720
I1
aI0
aa(lp721
I0
aa(lp722
I2
aI0
aI1
aa(lp723
I1
aI0
aa(lp724
I1
aI1
aI0
aa(lp725
I0
aI1
aa(lp726
I3
aI1
aI2
aI0
aa(lp727
I0
aI1
aI0
aa(lp728
I1
aI0
aa(lp729
I0
aa(lp730
I1
aI1
aI0
aa(lp731
I2
aI0
aI1
aa(lp732
I1
aI0
aa(lp733
I0
aa(lp734
I1
aI0
aa(lp735
I1
aI2
aI0
aa(lp736
I2
aI2
aI1
aI0
aa(lp737
I0
aa(lp738
I2
aI1
aI0
aa(lp739
I1
aI0
aI0
aa(lp740
I0
aa(lp741
I0
aa(lp742
I1
aI0
aa(lp743
I0
aa(lp744
I0
aa(lp745
I2
aI1
aI0
aa(lp746
I2
aI1
aI0
aa(lp747
I0
aa(lp748
I0
aa(lp749
I0
aa(lp750
I0
aI1
aa(lp751
I0
aa(lp752
I1
aI2
aI0
aa(lp753
I0
aI1
aI2
aI0
aa(lp754
I1
aI0
aI2
aI0
aa(lp755
I2
aI1
aI0
aa(lp756
I0
aa(lp757
I0
aa(lp758
I0
aa(lp759
I1
aI0
aa(lp760
I2
aI1
aI0
aa(lp761
I0
aa(lp762
I2
aI0
aI1
aa(lp763
I0
aa(lp764
I2
aI0
aI1
aa(lp765
I2
aI1
aI0
aa(lp766
I1
aI0
aa(lp767
I0
aa(lp768
I0
aI0
aa(lp769
I2
aI0
aI1
aa(lp770
I0
aa(lp771
I0
aI1
aI0
aa(lp772
I2
aI0
aI1
aa(lp773
I1
aI1
aI0
aa(lp774
I0
aI0
aa(lp775
I0
aa(lp776
I1
aI2
aI0
aa(lp777
I0
aa(lp778
I2
aI0
aI1
aa(lp779
I0
aa(lp780
I1
aI0
aa(lp781
I0
aa(lp782
I0
aI0
aa(lp783
I0
aI1
aI0
aa(lp784
I1
aI0
aI1
aa(lp785
I1
aI0
aa(lp786
I2
aI1
aI0
aa(lp787
I1
aI2
aI0
aa(lp788
I2
aI0
aI1
aa(lp789
I0
aa(lp790
I1
aI0
aa(lp791
I0
aa(lp792
I0
aI1
aa(lp793
I1
aI0
aa(lp794
I0
aa(lp795
I2
aI1
aI0
aI0
aa(lp796
I1
aI2
aI0
aa(lp797
I1
aI2
aI0
aa(lp798
I1
aI0
aI0
aa(lp799
I3
aI2
aI1
aI0
aa(lp800
I2
aI0
aI2
aI1
aa(lp801
I0
aa(lp802
I0
aa(lp803
I1
aI1
aI0
aa(lp804
I1
aI2
aI0
aa(lp805
I0
aa(lp806
I1
aI2
aI0
aa(lp807
I0
aa(lp808
I0
aI1
aa(lp809
I0
aa(lp810
I0
aa(lp811
I1
aI0
aa(lp812
I0
aa(lp813
I0
aI1
aI0
aa(lp814
I1
aI2
aI0
aa(lp815
I1
aI0
aI2
aa(lp816
I0
aa(lp817
I0
aa(lp818
I0
aa(lp819
I1
aI2
aI0
aa(lp820
I0
aa(lp821
I0
aa(lp822
I0
aI1
aa(lp823
I0
aI2
aI1
aa(lp824
I2
aI1
aI0
aa(lp825
I1
aI0
aa(lp826
I1
aI0
aa(lp827
I3
aI2
aI1
aI0
aa(lp828
I0
aa(lp829
I3
aI0
aI2
aI1
aa(lp830
I1
aI1
aI0
aa(lp831
I1
aI0
aI0
aa(lp832
I0
aa(lp833
I0
aa(lp834
I1
aI0
aa(lp835
I0
aa(lp836
I0
aa(lp837
I0
aa(lp838
I1
aI0
aI2
aI0
aa(lp839
I1
aI0
aa(lp840
I2
aI1
aI0
aa(lp841
I1
aI2
aI0
aa(lp842
I1
aI0
aa(lp843
I1
aI0
aa(lp844
I0
aa(lp845
I0
aa(lp846
I1
aI0
aa(lp847
I1
aI0
aa(lp848
I0
aa(lp849
I1
aI2
aI0
aa(lp850
I1
aI0
aa(lp851
I2
aI1
aI0
aa(lp852
I0
aa(lp853
I1
aI2
aI0
aa(lp854
I0
aa(lp855
I0
aa(lp856
I0
aa(lp857
I1
aI1
aI0
aa(lp858
I1
aI2
aI0
aa(lp859
I0
aI1
aI0
aa(lp860
I1
aI0
aa(lp861
I1
aI0
aa(lp862
I1
aI1
aI0
aa(lp863
I1
aI1
aI0
aa(lp864
I3
aI2
aI1
aI0
aa(lp865
I2
aI3
aI1
aI0
aa(lp866
I0
aa(lp867
I2
aI1
aI0
aa(lp868
I1
aI0
aa(lp869
I1
aI1
aI0
aa(lp870
I2
aI1
aI0
aa(lp871
I0
aa(lp872
I2
aI0
aI1
aa(lp873
I0
aa(lp874
I2
aI1
aI0
aa(lp875
I0
aa(lp876
I0
aa(lp877
I0
aa(lp878
I1
aI0
aa(lp879
I1
aI2
aI0
aa(lp880
I1
aI0
aa(lp881
I0
aa(lp882
I1
aI0
aa(lp883
I0
aI1
aa(lp884
I0
aa(lp885
I2
aI1
aI0
aa(lp886
I1
aI0
aa(lp887
I1
aI1
aI0
aa(lp888
I2
aI1
aI0
aa(lp889
I0
aa(lp890
I0
aa(lp891
I1
aI2
aI0
aa(lp892
I1
aI0
aI0
aa(lp893
I2
aI0
aI1
aa(lp894
I0
aa(lp895
I0
aI1
aa(lp896
I1
aI2
aI0
aa(lp897
I1
aI0
aI0
aa(lp898
I0
aI1
aI0
aa(lp899
I0
aI0
aa(lp900
I0
aa(lp901
I1
aI2
aI0
aa(lp902
I1
aI1
aI0
aa(lp903
I1
aI0
aa(lp904
I0
aa(lp905
I0
aa(lp906
I0
aa(lp907
I0
aI0
aI1
aI0
aa(lp908
I1
aI0
aa(lp909
I1
aI2
aI0
aa(lp910
I0
aa(lp911
I2
aI1
aI3
aI0
aa(lp912
I2
aI1
aI3
aI2
aI0
aa(lp913
I1
aI0
aI0
aa(lp914
I0
aa(lp915
I1
aI2
aI0
aa(lp916
I2
aI1
aI0
aa(lp917
I0
aa(lp918
I0
aa(lp919
I0
aa(lp920
I2
aI1
aI0
aa(lp921
I0
aa(lp922
I0
aa(lp923
I1
aI0
aa(lp924
I1
aI0
aa(lp925
I0
aa(lp926
I0
aI1
aI0
aa(lp927
I1
aI0
aa(lp928
I1
aI0
aa(lp929
I1
aI2
aI0
aa(lp930
I0
aI2
aI3
aI1
aa(lp931
I2
aI1
aI0
aa(lp932
I0
aa(lp933
I1
aI2
aI0
aa(lp934
I0
aI2
aI1
aa(lp935
I2
aI1
aI0
aa(lp936
I1
aI2
aI0
aa(lp937
I0
aI0
aa(lp938
I0
aa(lp939
I0
aa(lp940
I0
aa(lp941
I0
aa(lp942
I1
aI2
aI0
aa(lp943
I2
aI1
aI0
aa(lp944
I1
aI0
aI0
aa(lp945
I1
aI0
aa(lp946
I0
aI1
aa(lp947
I0
aa(lp948
I0
aa(lp949
I1
aI0
aa(lp950
I0
aa(lp951
I2
aI1
aI0
aa(lp952
I0
aa(lp953
I1
aI2
aI0
aa(lp954
I0
aa(lp955
I0
aI1
aa(lp956
I0
aa(lp957
I1
aI0
aa(lp958
I1
aI1
aI0
aa(lp959
I0
aa(lp960
I3
aI2
aI1
aI0
aa(lp961
I1
aI0
aa(lp962
I0
aa(lp963
I1
aI0
aa(lp964
I0
aI2
aI1
aI0
aa(lp965
I1
aI0
aa(lp966
I1
aI1
aI1
aI0
aa(lp967
I0
aI0
aa(lp968
I1
aI2
aI0
aa(lp969
I2
aI1
aI0
aa(lp970
I2
aI1
aI0
aa(lp971
I1
aI1
aI0
aa(lp972
I0
aa(lp973
I0
aI1
aa(lp974
I1
aI2
aI0
aa(lp975
I1
aI1
aI0
aa(lp976
I1
aI2
aI0
aa(lp977
I0
aI1
aI0
aa(lp978
I2
aI1
aI0
aa(lp979
I1
aI2
aI0
aa(lp980
I2
aI1
aI0
aa(lp981
I0
aa(lp982
I0
aa(lp983
I2
aI1
aI0
aa(lp984
I0
aa(lp985
I0
aa(lp986
I0
aa(lp987
I0
aa(lp988
I0
aI2
aI1
aa(lp989
I0
aa(lp990
I2
aI1
aI0
aa(lp991
I0
aa(lp992
I0
aa(lp993
I2
aI1
aI0
aa(lp994
I1
aI0
aa(lp995
I1
aI0
aa(lp996
I2
aI1
aI0
aa(lp997
I2
aI1
aI0
aa(lp998
I0
aa(lp999
I0
aa(lp1000
I2
aI1
aI0
aa.