(lp0
(lp1
I1
aI3
aI0
aI2
aa(lp2
I0
aI1
aa(lp3
I0
aI2
aI1
aa(lp4
I0
aI3
aI2
aI1
aa(lp5
I3
aI0
aI2
aI1
aa(lp6
I0
aI2
aI1
aa(lp7
I1
aI2
aI3
aI0
aa(lp8
I0
aI1
aI3
aI2
aa(lp9
I0
aI2
aI2
aI1
aa(lp10
I0
aa(lp11
I0
aI2
aI1
aa(lp12
I2
aI0
aI1
aa(lp13
I1
aI0
aI3
aI2
aa(lp14
I2
aI0
aI2
aI1
aa(lp15
I0
aI1
aa(lp16
I1
aI0
aI2
aI1
aa(lp17
I0
aI1
aa(lp18
I0
aI2
aI1
aa(lp19
I1
aI3
aI2
aI0
aa(lp20
I0
aI0
aI2
aI1
aI1
aa(lp21
I0
aI2
aI2
aI1
aa(lp22
I0
aI2
aI1
aa(lp23
I1
aI0
aa(lp24
I0
aI1
aa(lp25
I2
aI1
aI3
aI0
aa(lp26
I0
aI1
aa(lp27
I0
aI2
aI1
aa(lp28
I0
aI1
aa(lp29
I0
aI1
aa(lp30
I0
aI2
aI1
aa(lp31
I0
aI2
aI2
aI1
aa(lp32
I0
aI2
aI1
aa(lp33
I2
aI1
aI0
aa(lp34
I0
aa(lp35
I1
aI0
aa(lp36
I0
aI2
aI1
aa(lp37
I0
aI1
aa(lp38
I0
aI2
aI1
aa(lp39
I1
aI3
aI0
aI1
aI2
aa(lp40
I0
aI2
aI1
aa(lp41
I0
aI1
aa(lp42
I0
aa(lp43
I0
aI1
aa(lp44
I0
aI2
aI1
aa(lp45
I0
aI2
aI1
aa(lp46
I0
aI2
aI1
aa(lp47
I0
aa(lp48
I0
aI2
aI1
aa(lp49
I2
aI0
aI1
aa(lp50
I0
aI1
aI2
aI1
aa(lp51
I0
aI2
aI1
aa(lp52
I1
aI0
aa(lp53
I0
aI1
aa(lp54
I0
aI2
aI1
aa(lp55
I1
aI0
aa(lp56
I2
aI0
aI1
aa(lp57
I0
aI1
aa(lp58
I0
aI2
aI2
aI1
aa(lp59
I1
aI0
aI2
aI1
aa(lp60
I0
aa(lp61
I0
aa(lp62
I2
aI0
aI1
aa(lp63
I0
aI1
aa(lp64
I0
aI2
aI1
aa(lp65
I0
aI1
aI1
aa(lp66
I1
aI0
aa(lp67
I0
aa(lp68
I0
aI1
aa(lp69
I1
aI0
aa(lp70
I0
aa(lp71
I1
aI0
aI2
aa(lp72
I0
aI2
aI1
aI3
aI2
aa(lp73
I1
aI0
aI3
aI2
aa(lp74
I1
aI0
aa(lp75
I0
aI0
aI1
aa(lp76
I0
aI1
aa(lp77
I0
aa(lp78
I1
aI0
aI3
aI2
aa(lp79
I0
aI2
aI0
aI1
aa(lp80
I1
aI0
aI2
aI1
aa(lp81
I0
aI2
aI1
aa(lp82
I0
aI2
aI1
aa(lp83
I0
aI0
aI2
aI1
aa(lp84
I3
aI0
aI2
aI1
aa(lp85
I0
aI2
aI1
aa(lp86
I0
aa(lp87
I0
aI0
aI2
aI1
aa(lp88
I0
aI2
aI1
aa(lp89
I0
aI1
aI2
aa(lp90
I2
aI1
aI0
aI4
aI3
aa(lp91
I0
aI1
aa(lp92
I0
aI2
aI2
aI1
aa(lp93
I0
aI2
aI1
aa(lp94
I2
aI2
aI1
aI3
aI0
aa(lp95
I1
aI3
aI0
aI2
aa(lp96
I0
aa(lp97
I0
aI2
aI2
aI1
aa(lp98
I0
aI2
aI2
aI1
aa(lp99
I0
aI1
aa(lp100
I0
aI2
aI1
aa(lp101
I0
aI2
aI3
aI1
aa(lp102
I0
aI3
aI2
aI1
aa(lp103
I0
aa(lp104
I0
aa(lp105
I1
aI0
aI3
aI2
aa(lp106
I0
aI1
aa(lp107
I1
aI2
aI0
aI2
aa(lp108
I0
aI2
aI1
aa(lp109
I0
aI1
aI3
aI2
aa(lp110
I0
aI2
aI3
aI1
aa(lp111
I0
aI1
aa(lp112
I0
aI2
aI1
aa(lp113
I0
aI2
aI1
aa(lp114
I0
aI2
aI1
aa(lp115
I1
aI0
aI1
aa(lp116
I1
aI0
aI3
aI2
aa(lp117
I1
aI3
aI2
aI3
aI0
aa(lp118
I1
aI0
aa(lp119
I0
aI2
aI3
aI1
aa(lp120
I1
aI0
aI2
aa(lp121
I0
aI2
aI1
aI1
aa(lp122
I0
aI1
aa(lp123
I0
aI2
aI1
aa(lp124
I0
aI2
aI1
aa(lp125
I0
aI1
aI3
aI2
aa(lp126
I0
aI1
aa(lp127
I4
aI2
aI0
aI5
aI3
aI1
aa(lp128
I0
aI0
aI2
aI1
aa(lp129
I0
aI2
aI1
aa(lp130
I1
aI0
aa(lp131
I1
aI3
aI2
aI0
aa(lp132
I1
aI2
aI3
aI0
aa(lp133
I3
aI0
aI1
aI2
aa(lp134
I1
aI2
aI0
aa(lp135
I0
aa(lp136
I0
aI1
aa(lp137
I0
aa(lp138
I0
aI1
aa(lp139
I1
aI0
aI3
aI2
aa(lp140
I0
aI2
aI1
aa(lp141
I1
aI0
aI1
aa(lp142
I0
aI1
aI1
aa(lp143
I0
aa(lp144
I3
aI1
aI2
aI0
aa(lp145
I1
aI2
aI0
aa(lp146
I0
aI1
aa(lp147
I2
aI1
aI0
aI4
aI3
aa(lp148
I0
aI2
aI1
aa(lp149
I1
aI0
aI3
aI2
aa(lp150
I1
aI0
aI3
aI2
aa(lp151
I0
aa(lp152
I0
aa(lp153
I0
aI2
aI1
aa(lp154
I0
aI2
aI1
aa(lp155
I0
aI0
aa(lp156
I1
aI2
aI3
aI0
aa(lp157
I0
aI2
aI2
aI1
aa(lp158
I0
aI2
aI1
aa(lp159
I0
aa(lp160
I0
aI2
aI1
aa(lp161
I1
aI3
aI2
aI1
aI0
aa(lp162
I0
aI2
aI1
aa(lp163
I2
aI1
aI0
aI0
aa(lp164
I1
aI3
aI2
aI0
aa(lp165
I0
aI2
aI1
aa(lp166
I0
aa(lp167
I1
aI3
aI0
aI2
aa(lp168
I0
aI2
aI1
aa(lp169
I1
aI0
aI2
aa(lp170
I2
aI1
aI0
aa(lp171
I1
aI1
aI0
aa(lp172
I1
aI2
aI3
aI4
aI0
aa(lp173
I0
aI2
aI1
aa(lp174
I1
aI0
aI3
aI2
aa(lp175
I0
aI2
aI1
aa(lp176
I0
aI2
aI1
aa(lp177
I0
aI2
aI1
aa(lp178
I0
aI1
aI2
aa(lp179
I0
aI2
aI1
aa(lp180
I0
aI2
aI1
aa(lp181
I1
aI0
aa(lp182
I0
aI2
aI1
aa(lp183
I0
aa(lp184
I0
aI1
aa(lp185
I0
aI0
aa(lp186
I0
aI2
aI1
aa(lp187
I0
aI2
aI1
aa(lp188
I1
aI0
aI3
aI3
aI2
aa(lp189
I0
aI1
aa(lp190
I1
aI0
aI3
aI2
aa(lp191
I0
aI1
aI2
aI2
aa(lp192
I0
aI2
aI1
aa(lp193
I0
aa(lp194
I0
aI1
aI2
aI4
aI3
aa(lp195
I0
aI1
aa(lp196
I0
aI1
aI1
aa(lp197
I0
aI1
aa(lp198
I3
aI0
aI2
aI1
aa(lp199
I1
aI0
aa(lp200
I1
aI0
aa(lp201
I1
aI1
aI1
aI0
aa(lp202
I1
aI0
aI2
aa(lp203
I0
aI2
aI1
aa(lp204
I0
aI2
aI1
aa(lp205
I1
aI0
aa(lp206
I0
aI1
aa(lp207
I1
aI0
aI3
aI2
aa(lp208
I0
aI1
aI3
aI2
aa(lp209
I2
aI0
aI2
aI1
aa(lp210
I0
aI2
aI1
aa(lp211
I1
aI0
aI2
aa(lp212
I2
aI0
aI1
aa(lp213
I0
aI0
aI1
aa(lp214
I0
aI1
aa(lp215
I0
aI2
aI1
aa(lp216
I0
aI1
aI1
aa(lp217
I1
aI2
aI0
aa(lp218
I1
aI2
aI3
aI0
aa(lp219
I0
aI3
aI2
aI1
aa(lp220
I0
aI1
aa(lp221
I0
aI2
aI1
aa(lp222
I1
aI3
aI2
aI0
aa(lp223
I1
aI2
aI3
aI0
aa(lp224
I0
aI1
aI2
aa(lp225
I2
aI0
aI0
aI2
aI1
aa(lp226
I0
aI0
aI2
aI1
aa(lp227
I0
aa(lp228
I0
aI2
aI1
aa(lp229
I0
aI1
aI3
aI2
aa(lp230
I0
aa(lp231
I1
aI0
aa(lp232
I1
aI0
aI3
aI3
aI2
aa(lp233
I0
aI1
aa(lp234
I0
aI2
aI1
aa(lp235
I2
aI0
aI1
aa(lp236
I0
aI2
aI1
aa(lp237
I0
aI1
aI3
aI2
aa(lp238
I0
aI2
aI1
aa(lp239
I0
aI0
aI2
aI1
aa(lp240
I1
aI0
aa(lp241
I0
aI2
aI1
aa(lp242
I0
aI2
aI1
aa(lp243
I0
aI2
aI0
aI1
aa(lp244
I0
aI0
aI1
aa(lp245
I0
aI1
aI3
aI2
aa(lp246
I1
aI3
aI2
aI0
aa(lp247
I2
aI0
aI2
aI1
aa(lp248
I0
aI2
aI1
aa(lp249
I0
aI0
aI2
aI1
aa(lp250
I1
aI2
aI4
aI3
aI3
aI0
aa(lp251
I0
aI2
aI0
aI1
aI2
aa(lp252
I0
aI1
aI1
aa(lp253
I0
aI2
aI0
aI1
aa(lp254
I3
aI1
aI2
aI0
aI4
aI3
aa(lp255
I2
aI0
aI1
aI2
aa(lp256
I0
aI2
aI0
aI1
aI2
aI2
aa(lp257
I0
aI2
aI0
aI1
aI3
aI2
aa(lp258
I0
aI2
aI0
aI1
aa(lp259
I0
aI2
aI0
aI1
aI2
aa(lp260
I0
aI2
aI3
aI0
aI1
aI3
aa(lp261
I0
aI0
aI1
aI2
aa(lp262
I0
aI2
aI0
aI1
aI2
aa(lp263
I0
aI0
aI2
aI0
aI1
aI2
aa(lp264
I1
aI3
aI2
aI0
aI3
aa(lp265
I1
aI3
aI3
aI1
aI2
aI0
aI3
aa(lp266
I0
aI3
aI0
aI2
aI1
aa(lp267
I0
aI0
aI1
aI2
aa(lp268
I0
aI3
aI0
aI1
aI2
aI3
aa(lp269
I0
aI3
aI2
aI0
aI1
aI3
aa(lp270
I2
aI0
aI1
aI2
aa(lp271
I0
aI3
aI0
aI2
aI1
aI2
aa(lp272
I0
aI2
aI0
aI1
aI2
aa(lp273
I0
aI2
aI0
aI1
aI3
aI2
aa(lp274
I2
aI0
aI1
aI2
aa(lp275
I0
aI0
aI2
aI0
aI1
aI2
aa(lp276
I1
aI3
aI0
aI1
aI2
aa(lp277
I0
aI2
aI1
aI2
aa(lp278
I0
aI1
aI3
aI0
aI2
aa(lp279
I0
aI2
aI0
aI1
aI2
aa(lp280
I0
aI2
aI0
aI1
aI2
aa(lp281
I0
aI1
aI3
aI1
aI2
aI3
aa(lp282
I0
aI2
aI0
aI1
aI2
aa(lp283
I0
aI1
aI2
aI0
aI1
aI2
aa(lp284
I1
aI3
aI1
aI2
aI0
aI3
aa(lp285
I0
aI2
aI0
aI1
aI2
aa(lp286
I0
aI2
aI0
aI1
aa(lp287
I0
aI1
aI0
aa(lp288
I0
aI1
aI2
aa(lp289
I0
aI1
aI0
aI1
aa(lp290
I0
aI1
aI0
aI1
aa(lp291
I2
aI0
aI3
aI0
aI1
aI3
aa(lp292
I0
aI2
aI0
aI1
aa(lp293
I0
aI2
aI0
aI1
aI3
aI2
aa(lp294
I0
aI2
aI0
aI1
aI2
aa(lp295
I0
aI2
aI0
aI1
aI2
aa(lp296
I0
aI2
aI0
aI1
aI2
aa(lp297
I0
aI2
aI0
aI1
aI2
aa(lp298
I1
aI4
aI1
aI3
aI2
aI0
aI4
aa(lp299
I3
aI1
aI0
aI2
aI3
aa(lp300
I2
aI0
aI3
aI0
aI1
aI3
aa(lp301
I0
aI2
aI0
aI1
aI2
aa(lp302
I0
aI3
aI0
aI2
aI1
aI3
aa(lp303
I1
aI0
aI2
aI0
aI0
aI1
aI2
aa(lp304
I0
aI3
aI2
aI0
aI1
aI1
aI2
aa(lp305
I0
aI2
aI0
aI1
aI2
aa(lp306
I1
aI2
aI0
aI2
aa(lp307
I0
aI2
aI0
aI1
aI2
aa(lp308
I0
aI2
aI0
aI1
aI2
aa(lp309
I0
aI2
aI1
aI2
aa(lp310
I0
aI2
aI0
aI1
aa(lp311
I2
aI3
aI2
aI0
aI1
aI2
aa(lp312
I0
aI2
aI0
aI1
aI2
aa(lp313
I2
aI0
aI2
aI1
aI2
aa(lp314
I0
aI1
aI0
aI1
aa(lp315
I0
aI2
aI0
aI1
aI2
aa(lp316
I1
aI3
aI1
aI2
aI0
aI3
aa(lp317
I0
aI2
aI0
aI1
aI2
aa(lp318
I0
aI2
aI2
aI0
aI1
aI2
aa(lp319
I0
aI0
aI1
aI0
aI1
aa(lp320
I1
aI0
aI1
aa(lp321
I0
aI2
aI1
aI1
aI2
aa(lp322
I1
aI0
aI2
aI0
aI1
aI2
aa(lp323
I0
aI3
aI2
aI0
aI1
aI3
aa(lp324
I0
aI1
aI2
aI1
aI2
aa(lp325
I0
aI2
aI1
aa(lp326
I0
aI2
aI0
aI1
aI2
aa(lp327
I0
aI0
aI1
aI2
aa(lp328
I0
aI2
aI0
aI1
aI2
aa(lp329
I2
aI1
aI0
aI2
aa(lp330
I0
aI2
aI0
aI1
aI2
aa(lp331
I1
aI0
aI1
aa(lp332
I0
aI1
aI1
aI0
aI1
aa(lp333
I0
aI2
aI1
aI2
aa(lp334
I1
aI0
aI0
aI2
aa(lp335
I0
aI2
aI0
aI1
aa(lp336
I1
aI0
aI3
aI2
aI3
aa(lp337
I0
aI2
aI0
aI1
aa(lp338
I0
aI2
aI0
aI1
aI2
aa(lp339
I2
aI0
aI1
aI2
aa(lp340
I0
aI3
aI2
aI0
aI1
aI2
aa(lp341
I0
aI2
aI0
aI1
aI2
aa(lp342
I0
aI3
aI0
aI0
aI2
aI1
aI3
aa(lp343
I0
aI3
aI0
aI2
aI1
aI3
aa(lp344
I0
aI2
aI0
aI1
aI2
aa(lp345
I0
aI2
aI0
aI1
aI2
aa(lp346
I1
aI4
aI3
aI2
aI0
aI4
aa(lp347
I0
aI0
aI1
aI2
aa(lp348
I2
aI0
aI1
aI2
aa(lp349
I1
aI3
aI0
aI1
aI2
aa(lp350
I0
aI1
aI1
aI0
aI1
aa(lp351
I1
aI3
aI4
aI1
aI1
aI2
aI0
aI3
aa(lp352
I0
aI2
aI0
aI1
aI2
aa(lp353
I2
aI0
aI2
aI0
aI1
aI2
aa(lp354
I0
aI3
aI2
aI0
aI1
aI4
aI3
aa(lp355
I0
aI0
aI1
aI2
aa(lp356
I1
aI0
aI1
aa(lp357
I0
aI1
aI0
aI1
aa(lp358
I0
aI2
aI0
aI1
aI2
aa(lp359
I0
aI0
aI2
aI1
aI2
aa(lp360
I0
aI0
aI1
aI2
aa(lp361
I0
aI3
aI0
aI1
aI1
aI2
aI3
aa(lp362
I0
aI3
aI2
aI0
aI1
aI3
aI2
aa(lp363
I0
aI2
aI0
aI1
aI2
aa(lp364
I1
aI0
aI2
aI0
aI1
aI2
aa(lp365
I0
aI2
aI0
aI1
aI1
aI2
aa(lp366
I0
aI2
aI0
aI0
aI1
aI2
aa(lp367
I2
aI0
aI1
aI2
aa(lp368
I2
aI0
aI1
aI3
aa(lp369
I0
aI2
aI1
aa(lp370
I0
aI2
aI0
aI1
aI2
aa(lp371
I0
aI2
aI0
aI1
aI2
aa(lp372
I0
aI2
aI1
aa(lp373
I0
aI1
aI0
aI1
aa(lp374
I1
aI0
aI2
aI2
aa(lp375
I0
aI2
aI0
aI1
aI2
aa(lp376
I0
aI2
aI2
aI1
aI2
aa(lp377
I1
aI0
aI1
aa(lp378
I0
aI3
aI0
aI2
aI3
aI1
aI3
aa(lp379
I2
aI3
aI0
aI1
aI3
aa(lp380
I2
aI0
aI3
aI1
aI3
aa(lp381
I0
aI2
aI3
aI0
aI1
aI3
aa(lp382
I0
aI1
aI2
aI0
aI1
aI2
aa(lp383
I0
aI2
aI1
aI3
aI2
aa(lp384
I0
aI2
aI1
aI2
aa(lp385
I0
aI2
aI3
aI0
aI1
aa(lp386
I0
aI2
aI0
aI1
aI2
aa(lp387
I0
aI1
aI2
aI0
aI1
aa(lp388
I2
aI0
aI1
aI0
aI1
aa(lp389
I0
aI1
aI0
aI2
aa(lp390
I0
aI1
aI2
aa(lp391
I0
aI0
aI1
aI2
aa(lp392
I0
aI2
aI2
aI1
aI2
aa(lp393
I1
aI1
aI3
aI0
aI2
aI4
aa(lp394
I0
aI0
aI1
aI2
aI1
aI2
aa(lp395
I0
aI2
aI0
aI1
aI3
aI2
aa(lp396
I0
aI2
aI1
aI2
aa(lp397
I0
aI2
aI0
aI1
aI2
aa(lp398
I0
aI2
aI0
aI1
aI2
aa(lp399
I3
aI0
aI1
aI4
aI2
aI4
aa(lp400
I0
aI2
aI1
aI2
aa(lp401
I1
aI0
aa(lp402
I0
aI0
aa(lp403
I1
aI0
aa(lp404
I1
aI2
aI2
aI0
aa(lp405
I0
aI1
aa(lp406
I2
aI1
aI3
aI0
aa(lp407
I1
aI2
aI0
aa(lp408
I0
aI1
aa(lp409
I1
aI0
aa(lp410
I1
aI2
aI0
aa(lp411
I0
aa(lp412
I1
aI0
aI2
aa(lp413
I1
aI2
aI0
aa(lp414
I1
aI2
aI2
aI3
aI0
aa(lp415
I0
aI1
aa(lp416
I1
aI2
aI0
aa(lp417
I0
aI1
aa(lp418
I3
aI2
aI4
aI1
aI0
aa(lp419
I1
aI2
aI3
aI0
aa(lp420
I1
aI0
aa(lp421
I1
aI0
aa(lp422
I1
aI0
aa(lp423
I0
aI1
aa(lp424
I1
aI2
aI0
aa(lp425
I0
aa(lp426
I1
aI2
aI0
aa(lp427
I2
aI3
aI1
aI0
aa(lp428
I0
aI1
aa(lp429
I1
aI2
aI0
aa(lp430
I1
aI2
aI0
aa(lp431
I0
aI1
aa(lp432
I0
aa(lp433
I1
aI0
aI2
aa(lp434
I1
aI1
aI0
aa(lp435
I1
aI2
aI0
aa(lp436
I2
aI1
aI3
aI0
aa(lp437
I1
aI2
aI0
aa(lp438
I1
aI3
aI2
aI4
aI0
aa(lp439
I1
aI2
aI3
aI0
aa(lp440
I1
aI2
aI0
aa(lp441
I0
aI0
aa(lp442
I1
aI2
aI2
aI0
aa(lp443
I1
aI2
aI0
aa(lp444
I2
aI1
aI2
aI0
aa(lp445
I1
aI1
aI2
aI0
aa(lp446
I0
aI1
aa(lp447
I2
aI1
aI0
aI3
aa(lp448
I1
aI0
aa(lp449
I1
aI0
aa(lp450
I1
aI2
aI0
aa(lp451
I1
aI0
aa(lp452
I1
aI0
aa(lp453
I1
aI3
aI2
aI4
aI0
aa(lp454
I1
aI1
aI2
aI3
aI4
aI0
aa(lp455
I2
aI1
aI0
aa(lp456
I1
aI0
aa(lp457
I2
aI3
aI1
aI0
aa(lp458
I1
aI2
aI0
aa(lp459
I3
aI1
aI2
aI4
aI0
aa(lp460
I1
aI0
aa(lp461
I1
aI2
aI0
aa(lp462
I1
aI0
aa(lp463
I0
aI1
aa(lp464
I1
aI2
aI0
aa(lp465
I1
aI1
aI2
aI0
aa(lp466
I1
aI2
aI1
aI0
aa(lp467
I1
aI2
aI0
aa(lp468
I2
aI1
aI3
aI0
aa(lp469
I1
aI0
aa(lp470
I2
aI3
aI1
aI0
aa(lp471
I1
aI2
aI0
aa(lp472
I1
aI0
aa(lp473
I0
aa(lp474
I2
aI3
aI1
aI0
aa(lp475
I2
aI1
aI3
aI0
aa(lp476
I1
aI2
aI0
aa(lp477
I0
aI1
aa(lp478
I1
aI0
aa(lp479
I1
aI2
aI2
aI0
aa(lp480
I2
aI1
aI2
aI0
aa(lp481
I1
aI0
aI2
aI3
aa(lp482
I1
aI0
aa(lp483
I1
aI2
aI0
aa(lp484
I1
aI2
aI2
aI0
aa(lp485
I2
aI3
aI1
aI0
aa(lp486
I1
aI2
aI0
aa(lp487
I2
aI1
aI0
aa(lp488
I1
aI1
aI2
aI0
aa(lp489
I0
aI1
aI0
aa(lp490
I1
aI0
aa(lp491
I1
aI2
aI0
aa(lp492
I1
aI2
aI0
aa(lp493
I0
aI1
aa(lp494
I1
aI2
aI1
aI0
aa(lp495
I1
aI0
aI2
aa(lp496
I1
aI2
aI2
aI0
aa(lp497
I1
aI2
aI0
aa(lp498
I2
aI1
aI3
aI1
aI0
aa(lp499
I1
aI2
aI0
aa(lp500
I2
aI3
aI1
aI0
aa(lp501
I1
aI2
aI0
aa(lp502
I2
aI1
aI3
aI0
aa(lp503
I3
aI1
aI2
aI3
aI0
aa(lp504
I1
aI2
aI0
aa(lp505
I1
aI2
aI0
aa(lp506
I1
aI2
aI3
aI0
aa(lp507
I1
aI2
aI0
aa(lp508
I2
aI1
aI0
aa(lp509
I0
aa(lp510
I2
aI1
aI3
aI0
aa(lp511
I1
aI2
aI0
aa(lp512
I2
aI1
aI0
aa(lp513
I0
aI1
aa(lp514
I1
aI2
aI0
aa(lp515
I1
aI0
aa(lp516
I1
aI2
aI0
aa(lp517
I2
aI3
aI1
aI0
aa(lp518
I1
aI2
aI0
aa(lp519
I1
aI2
aI0
aa(lp520
I1
aI2
aI1
aI0
aa(lp521
I1
aI0
aa(lp522
I1
aI0
aa(lp523
I1
aI2
aI0
aa(lp524
I2
aI1
aI3
aI0
aa(lp525
I1
aI2
aI0
aa(lp526
I2
aI1
aI0
aa(lp527
I1
aI2
aI0
aa(lp528
I1
aI2
aI0
aa(lp529
I1
aI0
aa(lp530
I2
aI3
aI1
aI0
aa(lp531
I2
aI0
aI3
aI1
aa(lp532
I0
aI1
aa(lp533
I1
aI0
aa(lp534
I2
aI1
aI3
aI0
aa(lp535
I1
aI2
aI3
aI0
aa(lp536
I1
aI0
aa(lp537
I1
aI2
aI0
aa(lp538
I1
aI0
aI2
aI0
aa(lp539
I2
aI1
aI2
aI0
aa(lp540
I1
aI2
aI2
aI0
aa(lp541
I2
aI3
aI1
aI0
aa(lp542
I1
aI0
aa(lp543
I0
aI1
aa(lp544
I1
aI0
aI2
aa(lp545
I1
aI2
aI0
aa(lp546
I1
aI2
aI0
aa(lp547
I0
aI1
aa(lp548
I2
aI2
aI1
aI2
aI0
aa(lp549
I0
aI1
aa(lp550
I0
aa(lp551
I1
aI0
aa(lp552
I1
aI0
aa(lp553
I2
aI1
aI3
aI3
aI0
aa(lp554
I1
aI2
aI0
aa(lp555
I0
aI1
aI2
aI0
aa(lp556
I0
aI1
aa(lp557
I0
aI1
aI2
aI0
aa(lp558
I1
aI2
aI3
aI0
aa(lp559
I1
aI0
aa(lp560
I1
aI0
aI0
aa(lp561
I1
aI2
aI3
aI0
aa(lp562
I0
aa(lp563
I0
aI1
aa(lp564
I1
aI2
aI0
aa(lp565
I1
aI2
aI3
aI3
aI0
aa(lp566
I0
aa(lp567
I2
aI1
aI2
aI0
aa(lp568
I1
aI2
aI0
aa(lp569
I1
aI2
aI2
aI0
aa(lp570
I1
aI2
aI0
aa(lp571
I1
aI0
aa(lp572
I1
aI2
aI0
aa(lp573
I0
aI1
aa(lp574
I1
aI0
aa(lp575
I1
aI0
aa(lp576
I1
aI1
aI2
aI0
aa(lp577
I1
aI2
aI0
aa(lp578
I2
aI1
aI2
aI0
aa(lp579
I2
aI1
aI0
aa(lp580
I1
aI2
aI0
aa(lp581
I0
aI1
aa(lp582
I1
aI0
aa(lp583
I1
aI2
aI0
aa(lp584
I0
aI1
aa(lp585
I1
aI2
aI3
aI0
aa(lp586
I1
aI0
aI1
aa(lp587
I1
aI2
aI0
aa(lp588
I1
aI2
aI0
aa(lp589
I2
aI1
aI3
aI0
aa(lp590
I1
aI2
aI2
aI0
aa(lp591
I1
aI0
aa(lp592
I1
aI0
aa(lp593
I2
aI1
aI0
aa(lp594
I1
aI2
aI0
aa(lp595
I0
aI1
aa(lp596
I0
aI1
aa(lp597
I1
aI2
aI0
aa(lp598
I2
aI1
aI2
aI0
aa(lp599
I0
aI1
aa(lp600
I1
aI1
aI0
aa(lp601
I2
aI0
aI1
aa(lp602
I3
aI2
aI4
aI1
aI0
aa(lp603
I2
aI0
aI1
aa(lp604
I2
aI3
aI1
aI0
aa(lp605
I1
aI2
aI0
aa(lp606
I2
aI1
aI3
aI1
aI0
aI0
aa(lp607
I1
aI0
aa(lp608
I2
aI3
aI1
aI2
aI0
aa(lp609
I1
aI2
aI0
aa(lp610
I2
aI3
aI1
aI4
aI0
aa(lp611
I2
aI3
aI4
aI1
aI0
aa(lp612
I1
aI0
aa(lp613
I2
aI1
aI1
aI0
aa(lp614
I2
aI3
aI1
aI1
aI0
aa(lp615
I2
aI3
aI1
aI0
aa(lp616
I2
aI3
aI1
aI0
aa(lp617
I2
aI3
aI1
aI0
aa(lp618
I1
aI2
aI3
aI0
aa(lp619
I2
aI3
aI1
aI0
aa(lp620
I2
aI3
aI1
aI0
aa(lp621
I1
aI2
aI0
aa(lp622
I1
aI0
aI2
aI3
aI1
aa(lp623
I2
aI1
aI0
aI1
aa(lp624
I2
aI3
aI3
aI1
aI0
aa(lp625
I2
aI2
aI3
aI1
aI0
aa(lp626
I2
aI1
aI0
aa(lp627
I1
aI2
aI2
aI0
aa(lp628
I2
aI0
aI1
aa(lp629
I2
aI3
aI4
aI1
aI0
aa(lp630
I2
aI1
aI0
aa(lp631
I2
aI3
aI1
aI0
aa(lp632
I1
aI2
aI0
aa(lp633
I2
aI3
aI1
aI4
aI0
aa(lp634
I1
aI2
aI1
aI3
aI0
aa(lp635
I3
aI4
aI4
aI1
aI2
aI0
aa(lp636
I2
aI3
aI1
aI0
aa(lp637
I2
aI3
aI1
aI0
aa(lp638
I3
aI2
aI4
aI1
aI0
aa(lp639
I2
aI3
aI1
aI0
aa(lp640
I0
aI1
aa(lp641
I1
aI2
aI0
aa(lp642
I2
aI3
aI1
aI0
aa(lp643
I3
aI2
aI5
aI4
aI0
aI1
aa(lp644
I2
aI3
aI1
aI0
aa(lp645
I1
aI0
aa(lp646
I2
aI3
aI3
aI1
aI0
aa(lp647
I2
aI3
aI1
aI0
aa(lp648
I2
aI1
aI0
aa(lp649
I4
aI3
aI2
aI4
aI1
aI0
aa(lp650
I1
aI2
aI0
aa(lp651
I2
aI1
aI0
aa(lp652
I2
aI3
aI1
aI0
aa(lp653
I2
aI3
aI3
aI3
aI1
aI0
aa(lp654
I2
aI0
aI1
aa(lp655
I2
aI1
aI0
aa(lp656
I2
aI3
aI4
aI1
aI0
aa(lp657
I1
aI2
aI0
aa(lp658
I1
aI0
aa(lp659
I3
aI4
aI2
aI1
aI0
aa(lp660
I2
aI3
aI1
aI0
aa(lp661
I1
aI2
aI0
aa(lp662
I2
aI1
aI0
aa(lp663
I2
aI3
aI1
aI0
aa(lp664
I2
aI3
aI1
aI0
aa(lp665
I2
aI3
aI1
aI0
aa(lp666
I2
aI3
aI1
aI0
aa(lp667
I1
aI2
aI0
aa(lp668
I1
aI0
aa(lp669
I2
aI3
aI2
aI1
aI0
aa(lp670
I1
aI0
aa(lp671
I2
aI3
aI0
aI1
aa(lp672
I2
aI3
aI1
aI1
aI0
aa(lp673
I1
aI2
aI0
aa(lp674
I2
aI1
aI3
aI1
aI0
aa(lp675
I2
aI1
aI0
aa(lp676
I1
aI2
aI0
aa(lp677
I1
aI2
aI0
aa(lp678
I2
aI3
aI1
aI0
aa(lp679
I2
aI3
aI1
aI0
aa(lp680
I2
aI3
aI1
aI0
aa(lp681
I2
aI3
aI1
aI0
aa(lp682
I3
aI4
aI2
aI1
aI0
aa(lp683
I1
aI2
aI3
aI1
aI0
aa(lp684
I2
aI1
aI3
aI0
aa(lp685
I2
aI1
aI0
aa(lp686
I1
aI2
aI0
aa(lp687
I2
aI4
aI3
aI1
aI0
aa(lp688
I2
aI2
aI0
aI1
aa(lp689
I1
aI0
aI2
aI0
aa(lp690
I3
aI4
aI2
aI1
aI0
aa(lp691
I2
aI1
aI3
aI2
aI1
aI0
aa(lp692
I1
aI0
aI1
aa(lp693
I2
aI3
aI1
aI0
aa(lp694
I2
aI0
aI1
aa(lp695
I2
aI3
aI1
aI0
aa(lp696
I2
aI3
aI1
aI0
aa(lp697
I3
aI4
aI2
aI1
aI0
aa(lp698
I1
aI0
aa(lp699
I1
aI0
aa(lp700
I2
aI3
aI1
aI0
aa(lp701
I2
aI3
aI1
aI0
aa(lp702
I3
aI0
aI1
aI2
aa(lp703
I1
aI2
aI0
aa(lp704
I2
aI3
aI1
aI0
aa(lp705
I2
aI0
aI2
aI1
aa(lp706
I3
aI2
aI4
aI1
aI0
aa(lp707
I3
aI2
aI1
aI0
aa(lp708
I2
aI3
aI1
aI3
aI0
aa(lp709
I3
aI2
aI4
aI1
aI0
aa(lp710
I3
aI2
aI4
aI1
aI0
aa(lp711
I1
aI2
aI0
aa(lp712
I2
aI3
aI1
aI0
aa(lp713
I2
aI3
aI1
aI0
aa(lp714
I3
aI2
aI4
aI1
aI2
aI0
aa(lp715
I2
aI1
aI1
aI0
aa(lp716
I3
aI4
aI1
aI2
aI3
aI0
aa(lp717
I2
aI3
aI1
aI0
aa(lp718
I2
aI3
aI1
aI0
aa(lp719
I1
aI3
aI0
aI2
aa(lp720
I1
aI0
aa(lp721
I2
aI3
aI1
aI0
aa(lp722
I2
aI3
aI1
aI0
aa(lp723
I3
aI2
aI4
aI1
aI0
aa(lp724
I1
aI2
aI0
aa(lp725
I4
aI3
aI1
aI5
aI0
aI2
aa(lp726
I1
aI1
aI2
aI0
aa(lp727
I1
aI0
aI2
aI3
aI1
aa(lp728
I1
aI2
aI0
aa(lp729
I1
aI0
aa(lp730
I2
aI0
aI1
aa(lp731
I2
aI1
aI0
aa(lp732
I3
aI3
aI1
aI0
aI2
aa(lp733
I2
aI3
aI1
aI0
aa(lp734
I1
aI0
aa(lp735
I2
aI1
aI0
aa(lp736
I2
aI1
aI0
aa(lp737
I2
aI3
aI1
aI0
aa(lp738
I1
aI2
aI0
aa(lp739
I1
aI2
aI0
aa(lp740
I2
aI3
aI4
aI1
aI0
aa(lp741
I2
aI3
aI1
aI0
aa(lp742
I2
aI3
aI1
aI4
aI1
aI0
aa(lp743
I1
aI0
aI2
aI3
aI0
aa(lp744
I2
aI3
aI3
aI1
aI0
aa(lp745
I2
aI3
aI1
aI0
aa(lp746
I2
aI3
aI1
aI0
aa(lp747
I3
aI3
aI4
aI2
aI1
aI3
aI0
aa(lp748
I2
aI3
aI1
aI0
aa(lp749
I2
aI3
aI1
aI0
aa(lp750
I2
aI0
aI1
aa(lp751
I2
aI3
aI1
aI0
aa(lp752
I2
aI3
aI1
aI4
aI0
aa(lp753
I2
aI3
aI3
aI1
aI2
aI0
aa(lp754
I2
aI3
aI3
aI1
aI0
aa(lp755
I2
aI3
aI1
aI4
aI1
aI0
aa(lp756
I2
aI3
aI4
aI1
aI0
aa(lp757
I2
aI3
aI1
aI0
aa(lp758
I1
aI2
aI0
aa(lp759
I1
aI2
aI0
aa(lp760
I2
aI3
aI4
aI1
aI0
aa(lp761
I2
aI3
aI1
aI0
aa(lp762
I3
aI2
aI4
aI1
aI0
aa(lp763
I2
aI3
aI1
aI0
aa(lp764
I2
aI0
aI1
aa(lp765
I2
aI3
aI1
aI0
aa(lp766
I2
aI1
aI0
aa(lp767
I1
aI0
aI3
aI2
aI3
aI0
aa(lp768
I2
aI0
aI1
aa(lp769
I2
aI3
aI1
aI0
aa(lp770
I2
aI3
aI1
aI0
aa(lp771
I1
aI0
aI2
aI3
aI1
aa(lp772
I0
aI2
aI1
aa(lp773
I2
aI3
aI1
aI0
aa(lp774
I2
aI4
aI3
aI1
aI0
aa(lp775
I2
aI1
aI0
aa(lp776
I1
aI2
aI0
aa(lp777
I1
aI2
aI0
aa(lp778
I2
aI0
aI1
aa(lp779
I2
aI1
aI3
aI0
aa(lp780
I3
aI4
aI2
aI1
aI0
aa(lp781
I3
aI2
aI3
aI1
aI0
aa(lp782
I3
aI4
aI2
aI1
aI0
aa(lp783
I1
aI2
aI0
aa(lp784
I2
aI3
aI1
aI0
aa(lp785
I2
aI1
aI3
aI1
aI0
aa(lp786
I2
aI3
aI1
aI2
aI2
aI0
aa(lp787
I1
aI2
aI0
aa(lp788
I1
aI2
aI0
aa(lp789
I2
aI3
aI1
aI4
aI0
aa(lp790
I2
aI3
aI1
aI0
aa(lp791
I2
aI3
aI1
aI0
aa(lp792
I2
aI0
aI1
aa(lp793
I2
aI3
aI1
aI0
aa(lp794
I1
aI2
aI0
aa(lp795
I3
aI4
aI2
aI1
aI0
aa(lp796
I3
aI2
aI4
aI1
aI0
aa(lp797
I3
aI4
aI1
aI2
aI0
aa(lp798
I2
aI3
aI1
aI0
aa(lp799
I1
aI0
aa(lp800
I2
aI3
aI1
aI4
aI0
aa(lp801
I1
aI0
aa(lp802
I3
aI4
aI2
aI1
aI0
aa(lp803
I2
aI3
aI1
aI0
aa(lp804
I2
aI0
aI1
aa(lp805
I1
aI2
aI0
aa(lp806
I2
aI3
aI1
aI0
aa(lp807
I0
aa(lp808
I2
aI4
aI3
aI1
aI0
aa(lp809
I1
aI2
aI2
aI0
aa(lp810
I2
aI1
aI3
aI0
aa(lp811
I1
aI0
aI2
aI3
aI0
aa(lp812
I1
aI2
aI0
aI2
aa(lp813
I2
aI1
aI2
aI0
aa(lp814
I2
aI1
aI0
aa(lp815
I1
aI2
aI3
aI0
aa(lp816
I2
aI0
aI1
aa(lp817
I1
aI0
aa(lp818
I1
aI2
aI0
aa(lp819
I2
aI0
aI1
aa(lp820
I1
aI2
aI0
aa(lp821
I3
aI4
aI1
aI2
aI0
aa(lp822
I2
aI1
aI0
aa(lp823
I3
aI4
aI2
aI1
aI0
aa(lp824
I2
aI1
aI0
aI3
aI0
aa(lp825
I2
aI2
aI3
aI1
aI0
aa(lp826
I1
aI2
aI0
aa(lp827
I1
aI2
aI0
aI3
aI4
aI0
aa(lp828
I3
aI1
aI2
aI0
aa(lp829
I2
aI0
aI0
aI1
aa(lp830
I3
aI2
aI1
aI0
aa(lp831
I1
aI2
aI0
aa(lp832
I1
aI2
aI0
aa(lp833
I0
aI1
aI2
aI0
aa(lp834
I2
aI3
aI1
aI3
aI0
aa(lp835
I2
aI3
aI1
aI0
aa(lp836
I2
aI3
aI1
aI0
aa(lp837
I2
aI3
aI1
aI0
aa(lp838
I2
aI3
aI1
aI1
aI0
aa(lp839
I1
aI2
aI0
aa(lp840
I1
aI2
aI0
aa(lp841
I4
aI5
aI0
aI3
aI1
aI2
aa(lp842
I2
aI3
aI1
aI0
aa(lp843
I2
aI3
aI1
aI0
aa(lp844
I3
aI4
aI2
aI1
aI0
aa(lp845
I3
aI2
aI1
aI0
aa(lp846
I1
aI2
aI0
aa(lp847
I2
aI3
aI1
aI2
aI0
aa(lp848
I3
aI4
aI2
aI1
aI0
aa(lp849
I2
aI3
aI1
aI0
aa(lp850
I2
aI3
aI2
aI1
aI0
aa(lp851
I1
aI2
aI0
aa(lp852
I1
aI2
aI0
aa(lp853
I2
aI3
aI1
aI0
aa(lp854
I2
aI3
aI1
aI0
aa(lp855
I2
aI3
aI1
aI0
aa(lp856
I3
aI2
aI1
aI0
aa(lp857
I1
aI2
aI0
aa(lp858
I2
aI3
aI1
aI0
aa(lp859
I2
aI3
aI1
aI0
aa(lp860
I2
aI3
aI1
aI1
aI0
aa(lp861
I2
aI1
aI0
aa(lp862
I2
aI0
aI1
aa(lp863
I3
aI4
aI1
aI2
aI0
aa(lp864
I2
aI3
aI1
aI0
aa(lp865
I2
aI2
aI3
aI1
aI0
aa(lp866
I2
aI3
aI1
aI0
aa(lp867
I3
aI2
aI3
aI1
aI0
aa(lp868
I2
aI3
aI1
aI0
aa(lp869
I4
aI2
aI3
aI1
aI0
aa(lp870
I2
aI3
aI1
aI2
aI0
aa(lp871
I1
aI2
aI0
aI3
aI0
aa(lp872
I0
aI1
aI2
aI0
aa(lp873
I1
aI3
aI0
aI2
aa(lp874
I2
aI3
aI1
aI0
aa(lp875
I1
aI1
aI0
aa(lp876
I3
aI3
aI4
aI1
aI2
aI0
aa(lp877
I1
aI0
aa(lp878
I2
aI2
aI0
aI1
aa(lp879
I1
aI2
aI0
aa(lp880
I3
aI2
aI3
aI1
aI0
aa(lp881
I1
aI3
aI0
aI2
aa(lp882
I1
aI0
aa(lp883
I2
aI1
aI1
aI0
aa(lp884
I1
aI0
aa(lp885
I1
aI0
aa(lp886
I1
aI0
aa(lp887
I2
aI3
aI1
aI0
aa(lp888
I2
aI3
aI1
aI4
aI0
aa(lp889
I2
aI2
aI1
aI0
aa(lp890
I1
aI2
aI0
aa(lp891
I1
aI0
aa(lp892
I2
aI3
aI3
aI1
aI0
aa(lp893
I2
aI1
aI0
aa(lp894
I1
aI2
aI0
aa(lp895
I2
aI2
aI3
aI3
aI1
aI0
aa(lp896
I2
aI3
aI1
aI3
aI0
aa(lp897
I1
aI2
aI0
aa(lp898
I1
aI2
aI0
aa(lp899
I3
aI2
aI0
aI4
aI1
aa(lp900
I1
aI2
aI0
aa(lp901
I2
aI1
aI0
aa(lp902
I1
aI0
aI2
aI0
aa(lp903
I2
aI0
aI1
aa(lp904
I3
aI4
aI1
aI2
aI0
aa(lp905
I2
aI3
aI1
aI0
aa(lp906
I2
aI3
aI4
aI1
aI0
aa(lp907
I2
aI1
aI3
aI0
aa(lp908
I2
aI3
aI3
aI1
aI0
aa(lp909
I4
aI5
aI3
aI0
aI0
aI1
aI2
aa(lp910
I2
aI3
aI1
aI0
aa(lp911
I2
aI3
aI1
aI0
aa(lp912
I3
aI1
aI2
aI2
aI0
aa(lp913
I2
aI3
aI1
aI0
aa(lp914
I1
aI2
aI0
aa(lp915
I2
aI1
aI3
aI1
aI0
aa(lp916
I1
aI0
aa(lp917
I2
aI0
aI1
aa(lp918
I0
aI2
aI1
aa(lp919
I2
aI1
aI3
aI1
aI0
aa(lp920
I1
aI2
aI0
aa(lp921
I2
aI3
aI3
aI1
aI0
aa(lp922
I1
aI2
aI0
aa(lp923
I2
aI3
aI1
aI0
aa(lp924
I2
aI3
aI1
aI0
aa(lp925
I2
aI1
aI3
aI0
aa(lp926
I0
aI0
aI1
aa(lp927
I3
aI2
aI1
aI0
aa(lp928
I2
aI3
aI1
aI0
aa(lp929
I2
aI3
aI1
aI2
aI0
aa(lp930
I2
aI3
aI1
aI0
aa(lp931
I3
aI2
aI1
aI0
aa(lp932
I0
aI1
aI2
aI0
aa(lp933
I1
aI2
aI0
aI3
aI0
aa(lp934
I2
aI0
aI1
aa(lp935
I2
aI3
aI1
aI0
aa(lp936
I1
aI2
aI0
aI3
aI0
aa(lp937
I2
aI3
aI1
aI0
aa(lp938
I1
aI0
aI2
aI0
aa(lp939
I0
aI1
aa(lp940
I4
aI5
aI3
aI1
aI0
aI2
aa(lp941
I2
aI1
aI3
aI0
aa(lp942
I1
aI2
aI3
aI0
aa(lp943
I2
aI4
aI3
aI1
aI0
aa(lp944
I1
aI2
aI2
aI0
aa(lp945
I3
aI4
aI2
aI1
aI0
aa(lp946
I2
aI3
aI1
aI0
aa(lp947
I2
aI3
aI1
aI0
aa(lp948
I3
aI4
aI2
aI1
aI1
aI0
aa(lp949
I2
aI3
aI1
aI0
aa(lp950
I1
aI2
aI0
aa(lp951
I1
aI3
aI2
aI0
aI3
aI4
aI0
aa(lp952
I5
aI0
aI2
aI1
aI3
aI3
aI4
aa(lp953
I2
aI0
aI1
aI3
aa(lp954
I3
aI1
aI0
aI2
aa(lp955
I1
aI2
aI3
aI4
aI0
aa(lp956
I4
aI4
aI0
aI2
aI1
aI3
aI5
aa(lp957
I1
aI2
aI3
aI4
aI0
aa(lp958
I4
aI0
aI2
aI1
aI3
aI5
aa(lp959
I1
aI2
aI3
aI4
aI0
aa(lp960
I1
aI2
aI3
aI2
aI4
aI0
aa(lp961
I1
aI2
aI3
aI4
aI0
aa(lp962
I0
aI2
aI3
aI1
aa(lp963
I1
aI2
aI3
aI4
aI0
aa(lp964
I1
aI2
aI3
aI4
aI0
aI0
aa(lp965
I2
aI1
aI0
aI3
aI2
aa(lp966
I0
aI1
aI2
aa(lp967
I1
aI0
aI3
aI2
aI4
aI5
aa(lp968
I1
aI2
aI3
aI0
aa(lp969
I0
aI1
aI2
aa(lp970
I2
aI1
aI2
aI3
aI4
aI0
aa(lp971
I0
aI4
aI1
aI3
aI4
aI2
aa(lp972
I1
aI2
aI3
aI4
aI0
aI0
aa(lp973
I0
aI0
aI2
aI3
aI1
aa(lp974
I2
aI3
aI1
aI4
aI1
aI0
aa(lp975
I1
aI0
aI1
aI2
aa(lp976
I0
aI4
aI2
aI1
aI3
aI5
aa(lp977
I1
aI2
aI3
aI4
aI1
aI1
aI0
aa(lp978
I1
aI2
aI3
aI4
aI0
aa(lp979
I4
aI0
aI2
aI1
aI3
aI5
aa(lp980
I1
aI2
aI3
aI0
aI4
aI0
aa(lp981
I1
aI2
aI3
aI4
aI0
aa(lp982
I1
aI2
aI3
aI1
aI4
aI0
aa(lp983
I1
aI1
aI2
aI3
aI4
aI0
aa(lp984
I1
aI2
aI3
aI4
aI0
aa(lp985
I1
aI2
aI3
aI4
aI0
aa(lp986
I0
aI1
aI0
aI3
aI2
aa(lp987
I0
aI3
aI1
aI2
aa(lp988
I1
aI2
aI3
aI0
aa(lp989
I1
aI2
aI3
aI4
aI0
aa(lp990
I3
aI1
aI2
aI3
aI4
aI0
aa(lp991
I3
aI1
aI2
aI3
aI0
aI4
aI0
aa(lp992
I1
aI2
aI2
aI3
aI3
aI4
aI0
aa(lp993
I1
aI2
aI3
aI0
aa(lp994
I0
aI1
aI3
aI2
aa(lp995
I1
aI2
aI3
aI2
aI4
aI0
aa(lp996
I0
aI2
aI1
aa(lp997
I1
aI2
aI3
aI4
aI0
aa(lp998
I2
aI0
aI3
aI1
aI4
aI2
aa(lp999
I0
aI1
aI2
aI3
aI2
aa(lp1000
I1
aI2
aI3
aI4
aI0
aa.