(lp0
(lp1
I2
aI0
aI2
aI1
aI4
aI4
aI3
aI5
aa(lp2
I0
aI2
aI1
aI4
aI3
aI5
aa(lp3
I1
aI0
aI3
aI2
aI4
aa(lp4
I0
aI2
aI1
aI4
aI3
aI5
aa(lp5
I0
aI2
aI1
aI4
aI3
aI1
aI5
aa(lp6
I1
aI0
aI3
aI2
aI4
aa(lp7
I0
aI2
aI4
aI1
aI4
aI3
aI5
aa(lp8
I0
aI2
aI1
aI4
aI3
aI5
aa(lp9
I0
aI2
aI1
aI3
aI4
aa(lp10
I0
aI0
aI2
aI1
aI4
aI3
aI4
aa(lp11
I0
aI2
aI1
aI3
aI4
aI3
aI1
aI5
aa(lp12
I0
aI2
aI1
aI0
aI4
aI3
aI5
aa(lp13
I0
aI2
aI1
aI3
aI4
aa(lp14
I0
aI2
aI1
aI3
aI4
aa(lp15
I1
aI0
aI3
aI2
aI4
aa(lp16
I1
aI0
aI2
aI1
aI4
aI3
aI5
aa(lp17
I0
aI2
aI1
aI3
aI4
aa(lp18
I0
aI2
aI1
aI4
aI4
aI3
aI5
aa(lp19
I0
aI1
aI2
aI3
aa(lp20
I0
aI2
aI1
aI3
aI4
aa(lp21
I0
aI2
aI4
aI1
aI4
aI3
aa(lp22
I0
aI2
aI0
aI1
aI4
aI4
aI3
aI5
aa(lp23
I0
aI0
aI0
aI2
aI1
aI4
aI3
aI5
aa(lp24
I0
aI2
aI1
aI0
aI4
aI3
aI5
aa(lp25
I0
aI1
aI4
aI3
aI2
aI0
aI4
aa(lp26
I0
aI1
aI3
aI2
aI4
aa(lp27
I0
aI2
aI1
aI4
aI3
aI5
aa(lp28
I0
aI1
aI3
aI2
aI4
aa(lp29
I0
aI2
aI2
aI1
aI4
aI3
aI5
aa(lp30
I0
aI2
aI1
aI1
aI4
aI3
aI5
aa(lp31
I0
aI2
aI1
aI3
aI4
aa(lp32
I3
aI0
aI2
aI3
aI1
aI4
aI3
aa(lp33
I0
aI2
aI1
aI1
aI4
aI3
aa(lp34
I0
aI2
aI1
aI4
aI3
aI5
aa(lp35
I0
aI2
aI1
aI4
aI1
aI3
aI5
aa(lp36
I0
aI1
aI3
aI2
aa(lp37
I0
aI2
aI1
aI4
aI3
aI5
aa(lp38
I0
aI2
aI1
aI4
aI3
aI0
aI5
aa(lp39
I1
aI0
aI3
aI2
aI4
aa(lp40
I3
aI0
aI2
aI1
aI3
aa(lp41
I0
aI2
aI1
aI4
aI3
aI5
aa(lp42
I0
aI2
aI1
aI4
aI3
aI5
aa(lp43
I0
aI2
aI1
aI3
aI4
aI3
aI5
aa(lp44
I0
aI2
aI1
aI4
aI3
aI5
aa(lp45
I0
aI1
aI3
aI2
aI4
aa(lp46
I0
aI2
aI1
aI4
aI3
aI5
aa(lp47
I0
aI2
aI1
aI4
aI3
aI5
aa(lp48
I0
aI2
aI1
aI4
aI3
aI5
aa(lp49
I1
aI0
aI2
aI3
aa(lp50
I0
aI2
aI1
aI4
aI3
aI5
aa(lp51
I0
aI2
aI1
aI4
aI3
aI5
aa(lp52
I0
aI2
aI1
aI4
aI3
aI5
aa(lp53
I0
aI2
aI1
aI4
aI3
aI5
aa(lp54
I0
aI1
aI3
aI2
aI4
aa(lp55
I5
aI0
aI0
aI2
aI1
aI4
aI3
aI5
aa(lp56
I0
aI2
aI1
aI4
aI3
aI3
aI5
aa(lp57
I0
aI2
aI1
aI1
aI4
aI3
aI5
aa(lp58
I0
aI1
aI2
aI3
aI2
aI4
aa(lp59
I0
aI3
aI2
aI1
aI4
aI3
aI5
aa(lp60
I1
aI0
aI3
aI2
aI4
aa(lp61
I0
aI2
aI1
aI3
aa(lp62
I1
aI0
aI3
aI2
aI4
aa(lp63
I0
aI2
aI3
aI1
aI3
aI2
aI4
aa(lp64
I0
aI2
aI1
aI3
aI5
aI4
aI3
aI5
aa(lp65
I0
aI1
aI3
aI2
aI4
aa(lp66
I0
aI4
aI2
aI3
aI1
aI4
aI3
aI5
aa(lp67
I0
aI1
aI3
aI0
aI2
aI4
aI4
aa(lp68
I0
aI2
aI1
aI4
aI3
aI5
aa(lp69
I0
aI2
aI1
aI4
aI3
aI5
aa(lp70
I0
aI1
aI3
aI0
aI2
aI4
aa(lp71
I0
aI3
aI2
aI1
aI4
aI3
aI5
aa(lp72
I0
aI0
aI2
aI1
aI4
aI3
aI5
aa(lp73
I3
aI0
aI1
aI3
aI2
aI4
aa(lp74
I0
aI2
aI1
aI3
aI3
aI4
aa(lp75
I0
aI2
aI1
aI4
aI3
aI5
aa(lp76
I0
aI2
aI1
aI4
aI3
aI5
aa(lp77
I0
aI1
aI2
aI3
aa(lp78
I1
aI0
aI2
aI1
aI4
aI3
aI5
aa(lp79
I0
aI2
aI1
aI4
aI3
aa(lp80
I0
aI2
aI1
aI4
aI3
aa(lp81
I0
aI1
aI3
aI2
aI0
aa(lp82
I0
aI2
aI1
aI4
aI3
aa(lp83
I4
aI0
aI1
aI3
aI2
aI4
aa(lp84
I0
aI2
aI1
aI3
aI4
aI3
aI5
aa(lp85
I1
aI0
aI2
aI3
aI2
aa(lp86
I0
aI2
aI1
aI4
aI2
aI4
aI3
aI5
aa(lp87
I0
aI2
aI1
aI4
aI3
aI5
aa(lp88
I0
aI2
aI1
aI4
aI3
aI5
aa(lp89
I0
aI2
aI1
aI4
aI3
aI5
aa(lp90
I0
aI2
aI1
aI4
aI0
aI3
aI5
aa(lp91
I0
aI2
aI0
aI1
aI4
aI3
aI5
aa(lp92
I0
aI1
aI4
aI3
aI2
aI4
aa(lp93
I0
aI2
aI1
aI3
aa(lp94
I1
aI0
aI3
aI2
aI2
aa(lp95
I0
aI2
aI1
aI4
aI3
aa(lp96
I0
aI1
aI3
aI2
aI4
aa(lp97
I0
aI4
aI2
aI1
aI3
aI4
aa(lp98
I0
aI1
aI3
aI2
aI4
aa(lp99
I1
aI0
aI3
aI2
aI4
aa(lp100
I4
aI0
aI2
aI2
aI1
aI3
aI4
aI3
aI5
aa(lp101
I0
aI2
aI1
aI4
aI3
aI5
aa(lp102
I0
aI2
aI1
aI4
aI3
aI1
aI5
aa(lp103
I0
aI2
aI1
aI4
aI1
aI2
aI3
aI5
aa(lp104
I0
aI2
aI4
aI1
aI4
aI3
aI5
aa(lp105
I0
aI2
aI1
aI3
aa(lp106
I0
aI2
aI1
aI4
aI3
aI3
aa(lp107
I0
aI2
aI1
aI4
aI3
aI5
aa(lp108
I0
aI2
aI2
aI1
aI4
aI3
aI5
aa(lp109
I0
aI2
aI1
aI4
aI3
aI5
aa(lp110
I0
aI2
aI1
aI4
aI4
aI3
aI5
aa(lp111
I0
aI2
aI1
aI4
aI3
aI5
aa(lp112
I0
aI2
aI1
aI1
aI4
aI3
aa(lp113
I0
aI2
aI1
aI4
aI3
aI5
aa(lp114
I0
aI2
aI1
aI4
aI3
aI5
aa(lp115
I0
aI2
aI1
aI4
aI3
aI5
aa(lp116
I0
aI2
aI1
aI4
aI3
aI5
aa(lp117
I0
aI2
aI1
aI4
aI3
aI2
aI5
aa(lp118
I0
aI2
aI1
aI4
aI3
aI5
aa(lp119
I0
aI2
aI1
aI4
aI3
aI5
aa(lp120
I5
aI0
aI2
aI1
aI4
aI3
aa(lp121
I1
aI0
aI2
aI3
aI2
aI4
aa(lp122
I0
aI2
aI1
aI4
aI3
aI5
aa(lp123
I0
aI5
aI2
aI1
aI4
aI3
aI5
aa(lp124
I0
aI1
aI2
aI4
aI3
aI5
aa(lp125
I0
aI2
aI1
aI1
aI3
aI4
aa(lp126
I0
aI2
aI1
aI4
aI1
aI3
aI5
aa(lp127
I0
aI4
aI2
aI1
aI3
aI4
aa(lp128
I0
aI1
aI3
aI0
aI2
aI4
aa(lp129
I0
aI2
aI4
aI1
aI4
aI3
aI5
aa(lp130
I0
aI2
aI1
aI3
aa(lp131
I0
aI2
aI1
aI4
aI3
aa(lp132
I0
aI2
aI1
aI4
aI3
aI3
aI5
aa(lp133
I1
aI0
aI4
aI3
aI2
aI4
aa(lp134
I0
aI2
aI1
aI4
aI3
aI5
aI5
aa(lp135
I0
aI1
aI3
aI2
aI4
aa(lp136
I0
aI2
aI1
aI4
aI3
aI5
aa(lp137
I0
aI2
aI4
aI1
aI4
aI3
aI5
aa(lp138
I0
aI2
aI1
aI4
aI3
aI0
aI5
aa(lp139
I0
aI2
aI1
aI3
aa(lp140
I0
aI0
aI4
aI2
aI1
aI4
aI3
aI5
aa(lp141
I0
aI2
aI1
aI4
aI3
aa(lp142
I0
aI2
aI1
aI4
aI3
aI5
aa(lp143
I0
aI2
aI1
aI1
aI4
aI3
aI5
aa(lp144
I0
aI2
aI1
aI4
aI4
aI3
aI5
aa(lp145
I0
aI2
aI1
aI4
aI3
aI5
aa(lp146
I0
aI2
aI1
aI4
aI3
aI5
aa(lp147
I0
aI2
aI2
aI1
aI4
aI3
aI5
aa(lp148
I0
aI2
aI1
aI4
aI5
aI3
aI5
aa(lp149
I0
aI1
aI3
aI2
aI1
aI4
aa(lp150
I0
aI2
aI1
aI4
aI3
aI5
aa(lp151
I0
aI1
aI2
aI3
aa(lp152
I0
aI1
aI3
aI2
aI3
aI4
aa(lp153
I0
aI2
aI1
aI4
aI3
aI1
aI5
aa(lp154
I0
aI2
aI1
aI4
aI3
aI5
aa(lp155
I0
aI2
aI1
aI3
aI4
aa(lp156
I0
aI2
aI1
aI4
aI3
aI5
aa(lp157
I0
aI1
aI3
aI2
aI4
aa(lp158
I0
aI2
aI1
aI2
aI4
aI3
aI5
aa(lp159
I0
aI2
aI1
aI4
aI3
aI5
aa(lp160
I0
aI2
aI1
aI4
aI3
aI4
aa(lp161
I0
aI2
aI1
aI4
aI3
aa(lp162
I0
aI1
aI3
aI2
aI4
aa(lp163
I0
aI2
aI1
aI4
aI5
aI3
aI5
aa(lp164
I1
aI0
aI2
aI3
aa(lp165
I1
aI0
aI2
aI1
aI3
aI4
aa(lp166
I0
aI4
aI2
aI1
aI4
aI3
aI5
aa(lp167
I0
aI1
aI3
aI2
aI4
aa(lp168
I0
aI2
aI2
aI1
aI4
aI3
aI5
aa(lp169
I0
aI2
aI2
aI1
aI4
aI2
aI3
aI5
aa(lp170
I0
aI2
aI1
aI4
aI1
aI3
aI5
aa(lp171
I0
aI2
aI4
aI1
aI4
aI3
aI5
aa(lp172
I0
aI2
aI1
aI4
aI3
aI5
aa(lp173
I0
aI1
aI2
aI3
aa(lp174
I0
aI1
aI3
aI3
aI2
aI4
aa(lp175
I3
aI0
aI2
aI1
aI4
aI3
aI5
aa(lp176
I0
aI2
aI1
aI4
aI3
aa(lp177
I0
aI2
aI1
aI3
aa(lp178
I0
aI1
aI3
aI2
aI4
aa(lp179
I0
aI2
aI1
aI3
aI4
aI3
aI5
aa(lp180
I0
aI0
aI2
aI1
aI4
aI3
aI5
aa(lp181
I1
aI0
aI3
aI2
aa(lp182
I0
aI2
aI1
aI4
aI3
aI5
aa(lp183
I0
aI2
aI2
aI1
aI4
aI3
aI5
aa(lp184
I0
aI2
aI1
aI4
aI3
aI5
aa(lp185
I0
aI2
aI1
aI4
aI3
aI5
aa(lp186
I0
aI2
aI1
aI4
aI3
aI5
aa(lp187
I0
aI2
aI1
aI4
aI3
aI5
aa(lp188
I0
aI2
aI1
aI4
aI3
aI5
aa(lp189
I0
aI2
aI1
aI4
aI3
aI5
aa(lp190
I0
aI5
aI2
aI1
aI4
aI3
aI5
aa(lp191
I0
aI2
aI1
aI4
aI3
aI5
aa(lp192
I1
aI0
aI3
aI2
aI4
aa(lp193
I0
aI2
aI1
aI4
aI3
aI5
aa(lp194
I0
aI2
aI1
aI4
aI3
aI5
aa(lp195
I0
aI2
aI1
aI4
aI3
aI5
aa(lp196
I0
aI1
aI3
aI2
aI4
aa(lp197
I0
aI1
aI3
aI2
aI4
aa(lp198
I0
aI1
aI2
aI3
aI2
aI4
aa(lp199
I0
aI2
aI1
aI4
aI3
aI5
aa(lp200
I0
aI2
aI1
aI3
aI4
aa(lp201
I0
aI2
aI1
aI4
aI3
aI1
aI5
aa(lp202
I0
aI2
aI1
aI3
aI0
aI4
aa(lp203
I0
aI2
aI1
aI3
aI4
aa(lp204
I0
aI2
aI1
aI4
aI3
aI5
aa(lp205
I0
aI2
aI1
aI4
aI3
aI5
aa(lp206
I0
aI2
aI1
aI4
aI3
aa(lp207
I0
aI2
aI1
aI4
aI3
aI5
aa(lp208
I0
aI1
aI3
aI2
aI4
aa(lp209
I0
aI2
aI1
aI4
aI3
aI5
aa(lp210
I0
aI2
aI2
aI1
aI4
aI3
aI1
aI5
aa(lp211
I1
aI0
aI3
aI2
aI4
aa(lp212
I4
aI0
aI2
aI1
aI4
aI3
aI5
aa(lp213
I0
aI1
aI2
aI1
aI4
aI3
aI5
aa(lp214
I4
aI0
aI2
aI1
aI4
aI3
aI5
aa(lp215
I0
aI2
aI1
aI4
aI2
aI5
aI3
aI5
aa(lp216
I0
aI2
aI1
aI4
aI3
aI5
aa(lp217
I0
aI2
aI1
aI4
aI3
aI5
aa(lp218
I0
aI2
aI1
aI1
aI3
aI4
aa(lp219
I0
aI1
aI3
aI2
aI4
aa(lp220
I0
aI2
aI1
aI3
aa(lp221
I0
aI2
aI1
aI5
aI4
aI3
aI5
aa(lp222
I0
aI2
aI1
aI4
aI5
aI3
aI5
aa(lp223
I0
aI1
aI3
aI2
aa(lp224
I0
aI2
aI1
aI4
aI3
aI5
aa(lp225
I0
aI2
aI1
aI4
aI3
aI5
aa(lp226
I0
aI1
aI3
aI2
aa(lp227
I0
aI3
aI2
aI1
aI4
aI3
aI5
aa(lp228
I0
aI2
aI1
aI4
aI3
aI5
aa(lp229
I0
aI1
aI2
aI3
aa(lp230
I0
aI2
aI1
aI4
aI3
aI5
aa(lp231
I0
aI2
aI1
aI4
aI3
aI5
aa(lp232
I0
aI2
aI1
aI4
aI3
aI5
aa(lp233
I0
aI2
aI1
aI4
aI3
aa(lp234
I0
aI2
aI2
aI1
aI4
aI3
aI5
aa(lp235
I0
aI1
aI2
aI1
aI4
aI3
aI5
aa(lp236
I0
aI5
aI2
aI1
aI4
aI1
aI3
aa(lp237
I0
aI1
aI3
aI2
aI4
aa(lp238
I0
aI2
aI1
aI4
aI1
aI3
aI2
aI5
aa(lp239
I0
aI2
aI1
aI4
aI0
aI3
aI5
aa(lp240
I0
aI1
aI2
aI3
aa(lp241
I0
aI2
aI1
aI4
aI3
aI5
aa(lp242
I0
aI2
aI1
aI4
aI3
aI5
aa(lp243
I1
aI0
aI1
aI3
aI2
aI4
aa(lp244
I0
aI2
aI1
aI4
aI3
aI5
aa(lp245
I0
aI2
aI1
aI4
aI3
aI5
aa(lp246
I0
aI1
aI1
aI3
aI2
aI4
aa(lp247
I3
aI0
aI2
aI1
aI3
aI4
aa(lp248
I0
aI2
aI1
aI4
aI3
aI5
aa(lp249
I3
aI0
aI2
aI1
aI4
aI3
aa(lp250
I0
aI2
aI1
aI4
aI3
aI5
aa(lp251
I0
aI1
aI2
aI1
aI4
aI3
aa(lp252
I0
aI3
aI1
aI3
aI2
aI4
aa(lp253
I0
aI2
aI1
aI4
aI3
aI5
aa(lp254
I0
aI2
aI1
aI4
aI3
aI5
aa(lp255
I0
aI2
aI1
aI4
aI3
aI4
aI4
aI5
aa(lp256
I1
aI0
aI2
aI1
aI4
aI3
aI5
aa(lp257
I0
aI2
aI1
aI4
aI3
aI5
aa(lp258
I0
aI1
aI0
aI3
aI2
aa(lp259
I0
aI1
aI4
aI3
aI2
aI4
aa(lp260
I1
aI0
aI3
aI2
aI4
aa(lp261
I3
aI0
aI2
aI1
aI4
aI3
aa(lp262
I0
aI2
aI1
aI3
aI4
aa(lp263
I0
aI2
aI1
aI4
aI3
aI2
aI5
aa(lp264
I0
aI1
aI3
aI2
aI4
aa(lp265
I0
aI2
aI1
aI3
aI4
aa(lp266
I0
aI2
aI5
aI5
aI1
aI4
aI3
aI5
aa(lp267
I0
aI2
aI1
aI4
aI3
aI5
aa(lp268
I0
aI2
aI0
aI1
aI4
aI3
aI5
aa(lp269
I0
aI2
aI1
aI3
aI4
aa(lp270
I0
aI0
aI2
aI1
aI4
aI3
aa(lp271
I0
aI2
aI1
aI4
aI2
aI3
aI5
aa(lp272
I2
aI0
aI2
aI1
aI3
aI4
aa(lp273
I0
aI2
aI1
aI4
aI3
aI5
aa(lp274
I2
aI0
aI2
aI1
aI4
aI3
aI4
aI5
aa(lp275
I0
aI2
aI1
aI4
aI3
aI5
aa(lp276
I2
aI0
aI2
aI1
aI4
aI3
aI5
aa(lp277
I0
aI2
aI1
aI3
aI4
aa(lp278
I0
aI2
aI1
aI4
aI3
aI0
aI5
aa(lp279
I0
aI2
aI1
aI3
aI4
aa(lp280
I0
aI2
aI1
aI3
aI4
aa(lp281
I0
aI2
aI1
aI4
aI3
aI5
aa(lp282
I0
aI2
aI1
aI4
aI3
aI5
aa(lp283
I0
aI2
aI1
aI4
aI3
aa(lp284
I2
aI1
aI0
aI3
aI0
aI4
aI3
aI5
aa(lp285
I0
aI1
aI3
aI2
aI4
aa(lp286
I0
aI2
aI1
aI4
aI5
aI3
aI5
aa(lp287
I0
aI2
aI1
aI4
aI4
aI3
aI5
aa(lp288
I0
aI2
aI1
aI4
aI3
aI5
aa(lp289
I0
aI1
aI3
aI2
aI4
aa(lp290
I0
aI2
aI1
aI5
aI1
aI4
aI3
aI5
aa(lp291
I2
aI0
aI1
aI4
aI3
aI5
aa(lp292
I0
aI2
aI1
aI4
aI3
aI5
aa(lp293
I1
aI0
aI3
aI2
aI4
aa(lp294
I0
aI2
aI1
aI4
aI3
aI5
aa(lp295
I0
aI1
aI3
aI2
aI1
aI1
aI4
aI4
aa(lp296
I0
aI0
aI2
aI2
aI1
aI4
aI3
aI5
aa(lp297
I0
aI2
aI1
aI3
aI4
aa(lp298
I0
aI2
aI1
aI4
aI3
aI5
aa(lp299
I0
aI2
aI1
aI4
aI3
aI5
aa(lp300
I0
aI2
aI1
aI4
aI3
aI5
aa(lp301
I0
aa(lp302
I0
aa(lp303
I0
aa(lp304
I0
aI1
aa(lp305
I0
aa(lp306
I0
aI1
aI2
aa(lp307
I0
aI2
aI1
aa(lp308
I0
aI0
aI1
aa(lp309
I0
aa(lp310
I0
aa(lp311
I1
aI0
aI2
aa(lp312
I0
aI1
aa(lp313
I0
aI1
aa(lp314
I0
aI1
aa(lp315
I0
aI1
aa(lp316
I0
aI1
aa(lp317
I0
aa(lp318
I0
aa(lp319
I0
aI1
aa(lp320
I0
aa(lp321
I0
aI2
aI1
aa(lp322
I0
aI1
aa(lp323
I0
aI1
aa(lp324
I0
aa(lp325
I0
aI1
aa(lp326
I0
aI1
aa(lp327
I0
aa(lp328
I1
aI0
aI1
aI0
aa(lp329
I1
aI2
aI0
aI3
aa(lp330
I0
aa(lp331
I0
aa(lp332
I1
aI0
aI2
aa(lp333
I0
aI1
aa(lp334
I0
aI1
aa(lp335
I0
aI1
aa(lp336
I2
aI1
aI0
aI3
aI3
aa(lp337
I0
aa(lp338
I0
aI2
aI1
aa(lp339
I0
aa(lp340
I0
aI0
aI1
aa(lp341
I0
aI1
aa(lp342
I0
aI1
aa(lp343
I0
aa(lp344
I0
aI1
aa(lp345
I0
aa(lp346
I2
aI0
aI1
aa(lp347
I1
aI0
aI2
aI3
aa(lp348
I0
aI0
aI1
aI2
aa(lp349
I0
aa(lp350
I0
aI1
aa(lp351
I0
aa(lp352
I0
aa(lp353
I1
aI0
aI2
aa(lp354
I0
aa(lp355
I0
aI1
aI1
aa(lp356
I2
aI0
aI1
aa(lp357
I0
aI1
aa(lp358
I0
aI1
aa(lp359
I0
aI1
aa(lp360
I0
aa(lp361
I0
aa(lp362
I0
aa(lp363
I0
aa(lp364
I0
aa(lp365
I0
aI1
aa(lp366
I0
aa(lp367
I0
aI1
aa(lp368
I1
aI1
aI0
aI2
aa(lp369
I0
aI1
aa(lp370
I0
aI1
aa(lp371
I0
aa(lp372
I0
aI1
aa(lp373
I0
aa(lp374
I0
aa(lp375
I0
aI1
aa(lp376
I0
aa(lp377
I0
aa(lp378
I0
aI1
aa(lp379
I0
aI1
aa(lp380
I0
aI1
aI2
aa(lp381
I1
aI0
aa(lp382
I0
aa(lp383
I0
aa(lp384
I0
aI1
aa(lp385
I0
aa(lp386
I0
aa(lp387
I0
aI1
aa(lp388
I0
aI0
aa(lp389
I1
aI0
aI2
aa(lp390
I0
aa(lp391
I0
aa(lp392
I0
aa(lp393
I0
aI0
aI1
aI1
aa(lp394
I0
aI1
aI2
aa(lp395
I0
aI1
aI2
aa(lp396
I0
aI1
aa(lp397
I0
aa(lp398
I0
aa(lp399
I0
aa(lp400
I0
aI1
aa(lp401
I0
aI1
aa(lp402
I2
aI0
aI1
aa(lp403
I0
aI1
aa(lp404
I1
aI0
aI2
aa(lp405
I0
aI1
aa(lp406
I2
aI0
aI1
aa(lp407
I0
aI1
aI2
aa(lp408
I0
aI1
aa(lp409
I0
aI1
aa(lp410
I0
aI1
aI2
aa(lp411
I0
aI2
aI1
aa(lp412
I0
aI1
aa(lp413
I0
aI1
aa(lp414
I0
aa(lp415
I0
aI1
aI2
aa(lp416
I0
aI1
aa(lp417
I0
aI1
aI2
aa(lp418
I0
aI1
aI0
aa(lp419
I0
aI1
aa(lp420
I0
aa(lp421
I2
aI1
aI0
aI1
aa(lp422
I1
aI0
aa(lp423
I0
aI1
aa(lp424
I0
aa(lp425
I0
aI1
aa(lp426
I0
aI1
aa(lp427
I0
aI0
aI1
aa(lp428
I2
aI0
aI1
aa(lp429
I0
aI1
aI2
aa(lp430
I0
aa(lp431
I1
aI0
aa(lp432
I0
aI2
aI1
aa(lp433
I2
aI0
aI1
aa(lp434
I1
aI0
aI2
aa(lp435
I0
aa(lp436
I1
aI0
aI2
aa(lp437
I0
aI0
aI1
aa(lp438
I0
aa(lp439
I0
aI1
aa(lp440
I0
aI1
aa(lp441
I0
aI1
aa(lp442
I1
aI0
aI2
aa(lp443
I0
aa(lp444
I0
aI1
aI2
aa(lp445
I0
aI1
aa(lp446
I0
aI0
aa(lp447
I1
aI0
aI1
aa(lp448
I0
aI1
aa(lp449
I0
aI2
aI1
aI3
aa(lp450
I0
aI1
aa(lp451
I0
aI1
aa(lp452
I0
aI0
aa(lp453
I0
aI1
aa(lp454
I0
aa(lp455
I0
aI1
aa(lp456
I0
aI1
aa(lp457
I0
aI0
aI1
aa(lp458
I0
aa(lp459
I0
aI1
aI1
aa(lp460
I0
aI1
aa(lp461
I0
aI1
aa(lp462
I0
aI1
aa(lp463
I0
aa(lp464
I0
aI1
aa(lp465
I0
aI1
aI1
aa(lp466
I0
aI1
aI2
aa(lp467
I0
aa(lp468
I0
aa(lp469
I0
aa(lp470
I0
aa(lp471
I0
aI1
aa(lp472
I1
aI0
aI2
aa(lp473
I1
aI0
aa(lp474
I0
aa(lp475
I0
aI1
aa(lp476
I0
aI1
aI2
aa(lp477
I1
aI2
aI0
aI2
aa(lp478
I0
aI1
aa(lp479
I0
aa(lp480
I2
aI0
aI1
aa(lp481
I0
aa(lp482
I0
aI1
aa(lp483
I0
aI1
aa(lp484
I0
aI1
aa(lp485
I0
aI1
aI2
aa(lp486
I0
aa(lp487
I0
aI1
aI2
aa(lp488
I0
aa(lp489
I0
aa(lp490
I1
aI0
aa(lp491
I0
aI0
aa(lp492
I0
aa(lp493
I1
aI0
aI1
aa(lp494
I1
aI0
aa(lp495
I0
aI1
aa(lp496
I0
aa(lp497
I0
aI1
aI1
aa(lp498
I0
aI1
aa(lp499
I0
aI1
aa(lp500
I0
aa(lp501
I2
aI0
aI1
aa(lp502
I0
aI0
aI1
aa(lp503
I0
aI0
aI1
aa(lp504
I0
aI1
aa(lp505
I0
aa(lp506
I0
aa(lp507
I0
aa(lp508
I0
aI1
aa(lp509
I0
aI1
aa(lp510
I2
aI0
aI1
aa(lp511
I1
aI0
aI2
aa(lp512
I0
aI1
aI2
aa(lp513
I2
aI0
aI1
aI3
aa(lp514
I0
aI1
aa(lp515
I0
aI1
aI2
aa(lp516
I1
aI0
aa(lp517
I0
aI1
aa(lp518
I0
aI1
aa(lp519
I0
aI1
aa(lp520
I0
aa(lp521
I0
aI1
aI2
aa(lp522
I0
aI1
aa(lp523
I0
aa(lp524
I0
aI1
aa(lp525
I0
aa(lp526
I1
aI0
aa(lp527
I0
aI1
aI2
aa(lp528
I0
aI1
aa(lp529
I0
aI1
aa(lp530
I0
aI1
aa(lp531
I0
aI1
aI2
aa(lp532
I0
aI1
aa(lp533
I3
aI1
aI0
aI2
aa(lp534
I0
aI1
aa(lp535
I0
aI0
aa(lp536
I0
aa(lp537
I0
aI1
aa(lp538
I1
aI0
aI2
aa(lp539
I0
aa(lp540
I1
aI0
aI1
aa(lp541
I0
aI2
aI1
aa(lp542
I0
aa(lp543
I0
aa(lp544
I0
aI1
aa(lp545
I2
aI1
aI0
aI2
aa(lp546
I0
aI2
aI0
aI1
aa(lp547
I0
aI1
aa(lp548
I0
aI1
aa(lp549
I2
aI0
aI1
aa(lp550
I0
aI1
aI2
aa(lp551
I0
aa(lp552
I0
aa(lp553
I0
aI1
aa(lp554
I0
aI1
aI3
aI2
aa(lp555
I0
aI1
aI2
aI3
aa(lp556
I0
aa(lp557
I0
aI1
aI2
aa(lp558
I0
aa(lp559
I1
aI0
aI1
aa(lp560
I0
aa(lp561
I1
aI0
aI2
aa(lp562
I0
aI1
aa(lp563
I0
aa(lp564
I0
aI0
aI0
aI1
aa(lp565
I0
aa(lp566
I0
aI1
aa(lp567
I1
aI0
aI2
aa(lp568
I1
aI0
aa(lp569
I1
aI0
aa(lp570
I1
aI0
aI2
aI2
aa(lp571
I0
aa(lp572
I0
aI1
aI1
aI2
aa(lp573
I0
aa(lp574
I0
aI1
aa(lp575
I0
aI1
aa(lp576
I0
aI1
aa(lp577
I0
aI1
aa(lp578
I0
aI1
aa(lp579
I0
aI0
aI1
aa(lp580
I0
aI1
aI2
aa(lp581
I0
aI0
aI1
aa(lp582
I1
aI0
aa(lp583
I0
aI2
aI1
aa(lp584
I0
aI1
aa(lp585
I0
aI1
aa(lp586
I0
aI1
aI2
aa(lp587
I0
aa(lp588
I1
aI0
aI2
aa(lp589
I0
aa(lp590
I0
aI1
aa(lp591
I0
aI1
aa(lp592
I0
aa(lp593
I1
aI0
aI2
aa(lp594
I1
aI1
aI0
aI2
aa(lp595
I1
aI0
aI2
aa(lp596
I0
aa(lp597
I0
aI1
aa(lp598
I1
aI0
aa(lp599
I1
aI0
aa(lp600
I0
aI1
aa(lp601
I2
aI0
aI2
aI0
aI1
aI2
aa(lp602
I1
aI0
aI1
aI0
aI1
aa(lp603
I0
aI1
aI0
aa(lp604
I2
aI1
aI2
aI1
aI0
aI2
aa(lp605
I2
aI1
aI0
aI1
aI0
aI1
aa(lp606
I1
aI0
aI0
aI1
aI0
aI1
aa(lp607
I1
aI0
aI1
aI0
aI1
aa(lp608
I1
aI0
aI1
aI2
aI0
aI1
aa(lp609
I0
aI1
aI0
aI1
aa(lp610
I1
aI0
aI0
aI1
aI0
aa(lp611
I1
aI0
aI1
aI1
aI0
aI0
aI1
aa(lp612
I1
aI0
aI1
aI1
aI1
aa(lp613
I2
aI2
aI0
aI1
aI2
aa(lp614
I0
aI1
aI2
aI0
aI1
aI1
aa(lp615
I2
aI0
aI1
aI2
aI1
aa(lp616
I2
aI1
aI0
aI2
aI1
aa(lp617
I1
aI1
aI0
aI1
aa(lp618
I2
aI1
aI0
aI2
aI2
aI1
aI2
aa(lp619
I1
aI2
aI1
aI0
aI2
aa(lp620
I1
aI0
aI1
aI0
aI1
aa(lp621
I1
aI2
aI2
aI0
aI1
aI1
aa(lp622
I2
aI1
aI2
aI1
aI0
aI2
aa(lp623
I1
aI0
aI1
aI0
aI1
aa(lp624
I1
aI0
aI1
aI0
aI1
aa(lp625
I1
aI0
aI1
aI0
aI1
aa(lp626
I1
aI0
aI0
aI1
aa(lp627
I2
aI0
aI2
aI1
aI0
aI2
aa(lp628
I1
aI0
aI0
aI1
aa(lp629
I1
aI0
aI1
aI0
aI1
aa(lp630
I3
aI2
aI3
aI1
aI4
aI0
aI3
aa(lp631
I1
aI0
aI1
aI0
aI0
aI1
aa(lp632
I2
aI1
aI0
aI1
aI0
aI1
aa(lp633
I2
aI0
aI2
aI1
aI2
aa(lp634
I1
aI0
aI1
aI0
aa(lp635
I1
aI0
aI1
aI0
aI1
aa(lp636
I1
aI0
aI1
aI1
aa(lp637
I2
aI2
aI0
aI1
aI2
aa(lp638
I1
aI0
aI1
aI0
aa(lp639
I2
aI1
aI2
aI1
aI0
aI2
aa(lp640
I1
aI0
aI1
aa(lp641
I1
aI2
aI0
aI1
aI2
aa(lp642
I0
aI1
aI0
aI1
aI0
aI1
aa(lp643
I1
aI0
aI1
aI2
aI0
aI1
aa(lp644
I2
aI1
aI0
aI2
aI0
aI2
aa(lp645
I2
aI0
aI2
aI1
aI0
aa(lp646
I0
aI1
aI0
aI1
aI0
aI1
aa(lp647
I1
aI0
aI1
aI0
aI1
aa(lp648
I1
aI1
aI0
aI1
aa(lp649
I1
aI0
aI0
aI1
aa(lp650
I1
aI0
aI1
aI0
aI1
aa(lp651
I2
aI0
aI1
aI2
aI1
aa(lp652
I1
aI0
aI1
aI1
aa(lp653
I2
aI1
aI0
aI0
aI1
aa(lp654
I0
aI1
aI1
aI0
aI1
aa(lp655
I1
aI0
aI1
aI0
aI1
aa(lp656
I1
aI1
aI0
aI1
aa(lp657
I0
aI1
aI0
aI1
aI0
aI1
aa(lp658
I1
aI1
aI0
aI1
aa(lp659
I2
aI0
aI1
aI2
aI1
aa(lp660
I0
aI1
aI0
aa(lp661
I2
aI0
aI1
aI2
aI2
aa(lp662
I1
aI0
aI1
aI0
aI1
aa(lp663
I0
aI1
aI0
aI1
aa(lp664
I1
aI0
aI0
aI1
aa(lp665
I1
aI0
aI1
aI0
aI1
aa(lp666
I0
aI1
aI0
aI1
aI1
aa(lp667
I1
aI0
aI1
aI1
aa(lp668
I1
aI0
aI0
aI1
aI0
aI1
aa(lp669
I1
aI0
aI1
aa(lp670
I1
aI0
aI1
aI0
aI0
aI1
aa(lp671
I0
aI1
aI2
aI1
aI2
aI1
aI2
aa(lp672
I1
aI0
aI1
aI0
aI1
aa(lp673
I3
aI1
aI2
aI3
aI1
aI0
aI3
aa(lp674
I1
aI0
aI1
aI0
aI1
aa(lp675
I1
aI0
aI0
aI0
aI0
aI1
aa(lp676
I1
aI1
aI0
aI1
aa(lp677
I1
aI0
aI1
aI0
aI1
aa(lp678
I1
aI2
aI0
aI1
aI1
aI2
aa(lp679
I1
aI0
aI1
aI0
aI1
aa(lp680
I1
aI0
aI1
aI0
aa(lp681
I1
aI0
aI1
aI0
aI1
aa(lp682
I1
aI0
aI2
aI0
aI2
aa(lp683
I2
aI1
aI0
aI1
aI1
aI0
aI1
aa(lp684
I1
aI0
aI1
aI0
aI1
aa(lp685
I1
aI1
aI0
aI1
aa(lp686
I1
aI1
aI0
aI0
aI1
aa(lp687
I1
aI2
aI0
aI2
aI0
aI2
aa(lp688
I1
aI0
aI1
aI0
aI1
aa(lp689
I1
aI0
aI1
aI0
aa(lp690
I2
aI1
aI0
aI2
aI2
aa(lp691
I1
aI1
aI0
aI1
aI0
aI1
aa(lp692
I1
aI1
aI0
aI1
aa(lp693
I1
aI0
aI1
aI0
aI1
aa(lp694
I1
aI0
aI1
aI0
aI1
aa(lp695
I1
aI0
aI1
aa(lp696
I1
aI0
aI1
aI0
aI1
aa(lp697
I1
aI2
aI1
aI0
aI2
aa(lp698
I2
aI0
aI1
aI2
aI1
aI2
aa(lp699
I1
aI0
aI1
aI0
aI0
aI1
aa(lp700
I1
aI1
aI1
aI0
aI1
aa(lp701
I2
aI1
aI0
aI1
aI0
aI1
aa(lp702
I2
aI2
aI1
aI0
aI2
aI0
aI2
aa(lp703
I1
aI2
aI3
aI0
aI2
aI0
aI2
aa(lp704
I1
aI0
aI1
aI0
aI1
aa(lp705
I1
aI0
aI1
aI0
aI1
aa(lp706
I0
aI2
aI1
aI2
aI1
aI2
aa(lp707
I1
aI0
aI1
aI0
aa(lp708
I1
aI0
aI1
aI0
aa(lp709
I1
aI0
aI1
aI1
aa(lp710
I0
aI1
aI1
aa(lp711
I3
aI1
aI3
aI1
aI0
aI2
aI3
aa(lp712
I1
aI0
aI1
aI1
aI1
aI0
aI1
aa(lp713
I1
aI0
aI0
aI0
aI2
aa(lp714
I2
aI0
aI0
aI1
aI2
aa(lp715
I2
aI1
aI0
aI2
aI2
aa(lp716
I1
aI0
aI1
aI0
aI1
aa(lp717
I0
aI1
aI0
aI1
aa(lp718
I1
aI2
aI0
aI1
aI0
aI1
aa(lp719
I2
aI1
aI0
aI1
aI0
aI0
aI1
aa(lp720
I0
aI1
aI0
aI1
aa(lp721
I1
aI0
aI1
aI0
aI1
aa(lp722
I2
aI1
aI2
aI0
aI1
aI2
aa(lp723
I1
aI0
aI1
aI0
aa(lp724
I1
aI0
aI1
aI0
aI0
aI1
aa(lp725
I1
aI0
aI1
aI0
aI1
aa(lp726
I1
aI0
aI1
aI0
aI1
aa(lp727
I0
aI1
aI0
aa(lp728
I0
aI1
aI1
aI0
aI1
aI0
aI1
aa(lp729
I0
aI1
aI0
aI1
aI0
aI1
aa(lp730
I0
aI1
aI2
aa(lp731
I0
aI2
aI1
aI0
aI1
aa(lp732
I1
aI1
aI0
aI1
aI0
aI1
aa(lp733
I1
aI0
aI1
aI1
aa(lp734
I1
aI0
aI1
aI0
aa(lp735
I1
aI0
aI0
aI1
aI0
aI1
aa(lp736
I2
aI1
aI2
aI1
aI0
aI2
aa(lp737
I2
aI1
aI0
aI2
aI1
aI2
aa(lp738
I2
aI1
aI2
aI0
aI1
aI2
aa(lp739
I0
aI0
aI1
aI2
aI1
aI2
aa(lp740
I1
aI0
aI1
aI0
aI1
aa(lp741
I2
aI0
aI2
aI0
aI1
aI2
aa(lp742
I1
aI0
aI1
aI0
aI1
aa(lp743
I1
aI2
aI0
aI2
aI0
aa(lp744
I1
aI1
aI0
aI1
aI0
aI1
aa(lp745
I1
aI0
aI1
aI0
aI1
aa(lp746
I1
aI0
aI1
aI0
aI1
aa(lp747
I0
aI2
aI2
aI1
aI2
aa(lp748
I1
aI0
aI1
aI0
aI1
aa(lp749
I2
aI1
aI2
aI0
aI2
aa(lp750
I2
aI1
aI2
aI0
aI1
aI2
aa(lp751
I1
aI3
aI2
aI3
aI0
aI2
aI3
aa(lp752
I1
aI0
aI1
aI0
aI1
aa(lp753
I1
aI0
aI1
aI0
aI1
aa(lp754
I2
aI1
aI2
aI0
aI1
aI2
aa(lp755
I1
aI1
aI0
aI1
aI0
aI1
aa(lp756
I1
aI0
aI1
aI0
aI1
aa(lp757
I2
aI0
aI1
aI2
aI1
aa(lp758
I1
aI0
aI0
aI1
aa(lp759
I1
aI0
aI1
aI0
aI1
aa(lp760
I1
aI0
aI1
aI0
aI1
aa(lp761
I1
aI0
aI1
aI0
aa(lp762
I1
aI1
aI0
aI1
aa(lp763
I1
aI0
aI1
aI0
aI1
aa(lp764
I1
aI0
aI1
aI0
aI1
aa(lp765
I1
aI0
aI1
aI0
aI1
aa(lp766
I1
aI0
aI1
aI0
aI1
aa(lp767
I2
aI0
aI1
aI2
aI1
aa(lp768
I2
aI1
aI2
aI1
aI0
aI2
aa(lp769
I0
aI2
aI1
aI2
aI1
aI2
aa(lp770
I2
aI0
aI1
aI2
aI0
aI2
aa(lp771
I1
aI2
aI0
aI0
aI1
aa(lp772
I1
aI0
aI1
aI1
aI0
aI1
aa(lp773
I2
aI0
aI1
aI2
aI3
aI2
aa(lp774
I1
aI0
aI1
aI0
aI1
aa(lp775
I1
aI1
aI0
aI0
aI1
aa(lp776
I0
aI1
aI0
aI1
aa(lp777
I1
aI0
aI1
aI0
aI1
aa(lp778
I2
aI1
aI0
aI2
aI1
aI2
aa(lp779
I1
aI0
aI1
aI0
aa(lp780
I1
aI0
aI1
aI0
aI1
aI1
aa(lp781
I0
aI1
aI0
aI1
aa(lp782
I1
aI0
aI1
aI1
aI0
aI0
aI1
aa(lp783
I0
aI2
aI1
aI2
aI1
aI3
aI2
aa(lp784
I0
aI1
aI0
aI1
aa(lp785
I0
aI1
aI0
aI1
aa(lp786
I1
aI0
aI1
aI2
aI0
aI0
aI1
aa(lp787
I0
aI1
aI0
aI1
aa(lp788
I2
aI0
aI1
aI2
aI1
aI2
aa(lp789
I1
aI1
aI0
aI1
aI1
aa(lp790
I2
aI1
aI2
aI2
aI0
aI1
aI3
aI2
aa(lp791
I2
aI0
aI1
aI2
aI1
aI2
aa(lp792
I2
aI1
aI0
aI1
aI0
aI1
aa(lp793
I1
aI0
aI1
aI0
aI0
aI1
aa(lp794
I1
aI0
aI1
aI0
aI1
aa(lp795
I2
aI0
aI2
aI0
aI1
aI2
aI2
aa(lp796
I2
aI0
aI1
aI2
aI0
aI2
aa(lp797
I1
aI0
aI1
aI0
aI1
aa(lp798
I1
aI2
aI0
aI1
aa(lp799
I1
aI0
aI1
aI0
aa(lp800
I1
aI0
aI1
aI0
aI1
aa(lp801
I1
aI0
aI1
aI0
aa(lp802
I1
aI2
aI1
aI0
aI2
aa(lp803
I1
aI0
aI1
aI0
aI1
aa(lp804
I1
aI0
aI1
aI0
aI1
aa(lp805
I0
aI2
aI1
aI2
aI1
aI1
aI2
aa(lp806
I0
aI2
aI1
aI2
aa(lp807
I1
aI0
aI1
aI0
aI1
aa(lp808
I1
aI0
aI1
aI0
aa(lp809
I1
aI2
aI1
aI0
aI1
aa(lp810
I1
aI1
aI0
aI1
aa(lp811
I1
aI0
aI0
aI1
aa(lp812
I1
aI0
aI1
aI0
aI1
aa(lp813
I1
aI0
aI1
aI1
aI0
aa(lp814
I2
aI0
aI1
aI2
aI1
aI2
aa(lp815
I1
aI0
aI1
aI0
aI0
aI1
aa(lp816
I0
aI1
aI1
aI1
aa(lp817
I1
aI0
aI1
aI0
aI1
aa(lp818
I1
aI0
aI1
aI0
aI1
aa(lp819
I1
aI0
aI1
aI0
aI1
aa(lp820
I2
aI1
aI2
aI0
aI1
aI2
aa(lp821
I1
aI0
aI1
aI0
aI1
aa(lp822
I1
aI0
aI1
aa(lp823
I1
aI0
aI1
aI0
aI1
aa(lp824
I2
aI1
aI2
aI0
aI1
aI2
aa(lp825
I0
aI2
aI1
aI2
aa(lp826
I1
aI0
aI1
aI0
aa(lp827
I1
aI0
aI1
aI1
aa(lp828
I1
aI0
aI1
aI0
aI1
aa(lp829
I1
aI0
aI1
aI0
aI1
aa(lp830
I1
aI2
aI0
aI0
aI2
aI0
aI2
aa(lp831
I0
aI1
aI0
aI1
aa(lp832
I1
aI0
aI1
aa(lp833
I1
aI1
aI0
aI1
aa(lp834
I1
aI0
aI1
aI2
aI0
aI1
aa(lp835
I1
aI1
aI0
aI1
aa(lp836
I1
aI0
aI1
aI0
aI1
aa(lp837
I2
aI1
aI3
aI0
aI2
aI0
aI2
aa(lp838
I2
aI0
aI2
aI1
aI0
aI2
aa(lp839
I1
aI0
aI1
aI0
aI1
aa(lp840
I1
aI0
aI0
aI1
aa(lp841
I1
aI0
aI0
aI1
aa(lp842
I1
aI0
aI1
aa(lp843
I2
aI1
aI0
aI2
aI1
aI2
aa(lp844
I0
aI1
aI0
aI1
aa(lp845
I1
aI1
aI0
aa(lp846
I1
aI0
aI1
aI0
aI1
aa(lp847
I0
aI1
aI0
aI1
aa(lp848
I0
aI2
aI1
aI2
aI1
aI2
aa(lp849
I1
aI0
aI0
aI1
aI0
aI1
aa(lp850
I2
aI0
aI1
aI2
aI3
aI1
aI2
aa(lp851
I1
aI0
aI1
aI0
aI1
aa(lp852
I1
aI0
aI0
aa(lp853
I1
aI0
aI1
aI0
aa(lp854
I1
aI0
aI1
aI0
aI1
aa(lp855
I0
aI1
aI3
aI1
aI2
aI3
aa(lp856
I1
aI0
aI1
aI0
aI1
aa(lp857
I0
aI2
aI1
aI2
aI1
aI2
aa(lp858
I1
aI1
aI2
aI0
aI2
aI0
aI2
aa(lp859
I1
aI0
aI1
aI0
aI1
aa(lp860
I2
aI0
aI2
aI1
aI0
aI1
aI2
aa(lp861
I1
aI0
aI1
aI0
aa(lp862
I1
aI0
aI1
aI0
aI0
aI1
aa(lp863
I1
aI0
aI0
aI1
aa(lp864
I1
aI1
aI0
aI1
aI0
aI1
aa(lp865
I1
aI0
aI1
aa(lp866
I1
aI1
aI0
aI1
aa(lp867
I0
aI1
aI1
aa(lp868
I1
aI0
aI1
aI1
aa(lp869
I1
aI0
aI1
aI0
aI1
aa(lp870
I1
aI0
aI1
aI0
aI0
aI1
aa(lp871
I1
aI0
aI1
aI1
aI0
aI1
aa(lp872
I1
aI0
aI1
aI0
aI1
aa(lp873
I1
aI0
aI1
aI0
aI1
aa(lp874
I2
aI1
aI1
aI0
aI2
aa(lp875
I1
aI0
aI1
aI0
aI1
aa(lp876
I0
aI1
aI1
aa(lp877
I1
aI0
aI1
aI0
aa(lp878
I1
aI0
aI1
aI0
aI2
aI1
aa(lp879
I1
aI0
aI1
aI0
aI1
aa(lp880
I1
aI0
aI1
aI1
aa(lp881
I1
aI0
aI1
aI0
aI1
aa(lp882
I1
aI0
aI0
aI1
aa(lp883
I1
aI1
aI0
aI1
aa(lp884
I0
aI1
aI0
aI1
aa(lp885
I1
aI0
aI1
aI1
aa(lp886
I1
aI2
aI0
aI1
aI2
aa(lp887
I1
aI0
aI1
aI0
aI1
aa(lp888
I0
aI1
aI1
aI1
aa(lp889
I1
aI0
aI1
aI0
aI1
aa(lp890
I2
aI1
aI0
aI1
aI2
aa(lp891
I2
aI1
aI0
aI2
aI2
aa(lp892
I1
aI0
aI1
aI0
aI2
aI1
aa(lp893
I1
aI0
aI1
aI0
aI1
aa(lp894
I2
aI1
aI0
aI1
aI0
aI1
aa(lp895
I1
aI0
aI1
aI0
aI1
aa(lp896
I0
aI1
aI2
aI1
aI2
aa(lp897
I1
aI0
aI1
aI0
aI1
aa(lp898
I1
aI0
aI1
aI0
aI1
aa(lp899
I1
aI2
aI0
aI2
aI0
aI2
aa(lp900
I1
aI0
aI2
aI1
aI2
aa(lp901
I1
aI0
aI1
aI0
aI1
aa(lp902
I2
aI0
aI0
aI1
aI2
aI2
aa(lp903
I1
aI0
aI0
aI0
aI1
aa(lp904
I1
aI0
aI1
aI0
aI1
aa(lp905
I1
aI0
aI1
aI0
aI1
aa(lp906
I1
aI0
aI1
aI0
aI1
aa(lp907
I0
aI1
aI0
aI1
aI0
aI1
aa(lp908
I1
aI1
aI0
aI1
aa(lp909
I0
aI2
aI1
aI1
aI2
aI1
aI2
aa(lp910
I1
aI0
aI1
aa(lp911
I1
aI0
aI1
aI0
aI1
aa(lp912
I2
aI1
aI1
aI0
aI2
aa(lp913
I0
aI1
aI1
aI0
aa(lp914
I1
aI0
aI1
aI0
aI1
aa(lp915
I1
aI0
aI1
aI0
aI1
aa(lp916
I0
aI0
aI1
aI0
aI1
aa(lp917
I0
aI1
aI0
aI1
aa(lp918
I1
aI0
aI1
aI0
aI1
aa(lp919
I1
aI0
aI1
aI0
aI1
aa(lp920
I1
aI0
aI1
aI0
aI1
aa(lp921
I1
aI0
aI1
aI0
aI1
aa(lp922
I1
aI1
aI0
aI0
aI1
aa(lp923
I1
aI0
aI1
aI0
aI1
aa(lp924
I0
aI1
aI0
aI0
aI1
aa(lp925
I1
aI0
aI0
aI1
aa(lp926
I0
aI1
aI1
aa(lp927
I2
aI2
aI1
aI2
aI1
aI0
aI2
aa(lp928
I1
aI0
aI1
aI0
aI1
aa(lp929
I0
aI1
aI1
aI0
aI1
aa(lp930
I1
aI0
aI1
aI2
aI0
aI1
aa(lp931
I1
aI0
aI1
aI1
aa(lp932
I1
aI1
aI0
aI1
aI1
aa(lp933
I1
aI0
aI1
aI0
aI1
aa(lp934
I1
aI0
aI2
aI0
aI1
aa(lp935
I1
aI0
aI1
aI1
aa(lp936
I1
aI1
aI1
aI0
aI1
aa(lp937
I1
aI0
aI1
aI0
aI1
aa(lp938
I1
aI0
aI1
aI0
aI1
aa(lp939
I2
aI2
aI0
aI1
aI2
aa(lp940
I2
aI1
aI0
aI2
aI1
aI2
aa(lp941
I1
aI0
aI1
aI0
aI1
aa(lp942
I2
aI2
aI1
aI0
aI2
aa(lp943
I1
aI0
aI1
aI0
aI0
aI1
aa(lp944
I1
aI0
aI1
aI0
aI1
aa(lp945
I1
aI1
aI0
aI1
aI0
aI1
aa(lp946
I1
aI1
aI0
aI1
aI0
aI1
aa(lp947
I1
aI0
aI1
aI1
aa(lp948
I1
aI2
aI0
aI2
aI0
aI2
aa(lp949
I1
aI2
aI0
aI1
aI0
aI1
aa(lp950
I2
aI1
aI0
aI1
aI2
aa(lp951
I1
aI0
aI1
aI0
aI0
aa(lp952
I2
aI1
aI2
aI1
aI0
aI1
aa(lp953
I1
aI0
aI1
aI2
aI1
aa(lp954
I1
aI0
aI1
aI0
aI1
aa(lp955
I1
aI0
aI1
aI1
aa(lp956
I1
aI1
aI0
aI1
aI0
aI1
aa(lp957
I1
aI0
aI1
aI0
aI1
aa(lp958
I1
aI0
aI1
aI0
aI1
aa(lp959
I1
aI0
aI1
aI0
aI0
aI1
aa(lp960
I1
aI0
aI1
aI0
aa(lp961
I1
aI0
aI1
aI0
aI1
aa(lp962
I0
aI1
aI0
aI1
aa(lp963
I1
aI2
aI0
aI0
aI1
aI0
aI1
aa(lp964
I1
aI0
aI1
aI0
aI1
aa(lp965
I1
aI0
aI2
aI1
aI0
aI1
aa(lp966
I2
aI1
aI2
aI1
aI3
aI0
aI2
aa(lp967
I0
aI1
aI0
aI1
aa(lp968
I0
aI2
aI1
aI2
aI1
aI2
aa(lp969
I1
aI0
aI1
aI0
aI2
aI1
aa(lp970
I1
aI0
aI2
aI1
aI0
aI1
aa(lp971
I1
aI0
aI1
aI0
aI1
aa(lp972
I2
aI1
aI1
aI0
aI1
aa(lp973
I1
aI0
aI1
aI0
aI1
aa(lp974
I1
aI0
aI2
aI0
aI1
aa(lp975
I1
aI0
aI1
aI0
aI1
aa(lp976
I1
aI0
aI1
aI0
aI1
aa(lp977
I1
aI0
aI0
aI1
aa(lp978
I1
aI0
aI1
aI2
aI1
aa(lp979
I1
aI0
aI1
aI0
aI1
aa(lp980
I1
aI0
aI1
aa(lp981
I1
aI0
aI1
aI0
aI1
aa(lp982
I1
aI0
aI1
aI0
aa(lp983
I1
aI0
aI1
aI0
aI1
aa(lp984
I1
aI1
aI0
aI1
aa(lp985
I1
aI0
aI1
aI0
aI1
aa(lp986
I1
aI0
aI1
aI0
aI1
aa(lp987
I1
aI0
aI1
aI0
aI1
aa(lp988
I1
aI0
aI1
aI0
aI1
aa(lp989
I1
aI0
aI1
aI1
aa(lp990
I2
aI1
aI0
aI1
aI0
aI1
aa(lp991
I1
aI0
aI1
aI0
aI0
aI1
aa(lp992
I2
aI1
aI2
aI0
aI1
aI2
aa(lp993
I1
aI0
aI1
aI0
aI1
aa(lp994
I1
aI0
aI1
aI0
aI1
aa(lp995
I1
aI0
aI1
aa(lp996
I1
aI0
aI1
aI0
aI1
aa(lp997
I1
aI0
aI1
aI0
aI1
aa(lp998
I2
aI1
aI0
aI1
aI0
aI1
aa(lp999
I1
aI0
aI1
aI1
aa(lp1000
I1
aI1
aI0
aI1
aa.